Archive member included to satisfy reference by file (symbol)

/opt/coe/Xilinx/SDK/2015.2/gnu/arm/lin/bin/../lib/gcc/arm-xilinx-linux-gnueabi/4.9.1/libgcc.a(_udivsi3.o)
                              arch/arm/cpu/armv7/zynq/built-in.o (__aeabi_uidiv)
/opt/coe/Xilinx/SDK/2015.2/gnu/arm/lin/bin/../lib/gcc/arm-xilinx-linux-gnueabi/4.9.1/libgcc.a(_divsi3.o)
                              common/built-in.o (__aeabi_idiv)
/opt/coe/Xilinx/SDK/2015.2/gnu/arm/lin/bin/../lib/gcc/arm-xilinx-linux-gnueabi/4.9.1/libgcc.a(_lshrdi3.o)
                              common/built-in.o (__aeabi_llsr)
/opt/coe/Xilinx/SDK/2015.2/gnu/arm/lin/bin/../lib/gcc/arm-xilinx-linux-gnueabi/4.9.1/libgcc.a(_ashldi3.o)
                              drivers/mmc/built-in.o (__aeabi_llsl)
/opt/coe/Xilinx/SDK/2015.2/gnu/arm/lin/bin/../lib/gcc/arm-xilinx-linux-gnueabi/4.9.1/libgcc.a(_dvmd_lnx.o)
                              /opt/coe/Xilinx/SDK/2015.2/gnu/arm/lin/bin/../lib/gcc/arm-xilinx-linux-gnueabi/4.9.1/libgcc.a(_udivsi3.o) (__aeabi_idiv0)

Discarded input sections

 .data          0x00000000        0x0 arch/arm/cpu/armv7/start.o
 .bss           0x00000000        0x0 arch/arm/cpu/armv7/start.o
 .text          0x00000000        0x0 api/built-in.o
 .data          0x00000000        0x0 api/built-in.o
 .bss           0x00000000        0x0 api/built-in.o
 .text          0x00000000        0x0 arch/arm/cpu/armv7/built-in.o
 .text.sdelay   0x00000000        0xc arch/arm/cpu/armv7/built-in.o
 .text.sr32     0x00000000       0x20 arch/arm/cpu/armv7/built-in.o
 .text.wait_on_value
                0x00000000       0x34 arch/arm/cpu/armv7/built-in.o
 .data          0x00000000        0x0 arch/arm/cpu/armv7/built-in.o
 .bss           0x00000000        0x0 arch/arm/cpu/armv7/built-in.o
 .text.zynq_clk_get_name
                0x00000000       0x18 arch/arm/cpu/armv7/zynq/built-in.o
 .text.zynq_get_silicon_version
                0x00000000       0x14 arch/arm/cpu/armv7/zynq/built-in.o
 .data          0x00000000        0x0 arch/arm/cpu/armv7/zynq/built-in.o
 .bss           0x00000000        0x0 arch/arm/cpu/armv7/zynq/built-in.o
 .text.__arch_cpu_init
                0x00000000        0x8 arch/arm/lib/built-in.o
 .text.__red_led_off
                0x00000000        0x4 arch/arm/lib/built-in.o
 .text.__green_led_on
                0x00000000        0x4 arch/arm/lib/built-in.o
 .text.__green_led_off
                0x00000000        0x4 arch/arm/lib/built-in.o
 .text.__yellow_led_on
                0x00000000        0x4 arch/arm/lib/built-in.o
 .text.__yellow_led_off
                0x00000000        0x4 arch/arm/lib/built-in.o
 .text.__blue_led_on
                0x00000000        0x4 arch/arm/lib/built-in.o
 .text.__blue_led_off
                0x00000000        0x4 arch/arm/lib/built-in.o
 .text.setup_board_tags
                0x00000000        0x4 arch/arm/lib/built-in.o
 .text.__arm_init_before_mmu
                0x00000000        0x4 arch/arm/lib/built-in.o
 .text.__mmu_page_table_flush
                0x00000000        0x4 arch/arm/lib/built-in.o
 .text.__flush_cache
                0x00000000        0x4 arch/arm/lib/built-in.o
 .text.__flush_dcache_all
                0x00000000        0xc arch/arm/lib/built-in.o
 .text.__enable_caches
                0x00000000        0xc arch/arm/lib/built-in.o
 .data          0x00000000        0x0 arch/arm/lib/built-in.o
 .bss           0x00000000        0x0 arch/arm/lib/built-in.o
 .text          0x00000000        0x0 board/xilinx/zynq/built-in.o
 .data          0x00000000        0x0 board/xilinx/zynq/built-in.o
 .bss           0x00000000        0x0 board/xilinx/zynq/built-in.o
 .text          0x00000000        0x0 common/built-in.o
 .text.bootz_setup
                0x00000000       0x18 common/built-in.o
 .text.invalidate_icache_all
                0x00000000        0xc common/built-in.o
 .text.flush_dcache_all
                0x00000000        0xc common/built-in.o
 .text.soc_clk_dump
                0x00000000       0x18 common/built-in.o
 .text.serial_printf
                0x00000000       0x4c common/built-in.o
 .text.fputc    0x00000000       0x20 common/built-in.o
 .text.fputs    0x00000000       0x20 common/built-in.o
 .text.fprintf  0x00000000       0x54 common/built-in.o
 .text.disable_ctrlc
                0x00000000       0x18 common/built-in.o
 .text.dbg      0x00000000        0xc common/built-in.o
 .text.valloc   0x00000000        0xc common/built-in.o
 .text.pvalloc  0x00000000       0x18 common/built-in.o
 .text.cfree    0x00000000        0x4 common/built-in.o
 .text.malloc_usable_size
                0x00000000       0x3c common/built-in.o
 .text.mallopt  0x00000000       0x68 common/built-in.o
 .text.env_flags_parse_varaccess_from_binflags
                0x00000000       0x28 common/built-in.o
 .text.of_bus_default_map
                0x00000000       0xdc common/built-in.o
 .text.of_bus_default_count_cells
                0x00000000       0x74 common/built-in.o
 .text.of_bus_default_translate
                0x00000000       0xa0 common/built-in.o
 .text.fdt_getprop_u32_default
                0x00000000       0x48 common/built-in.o
 .text.do_fixup_by_path_u32
                0x00000000       0x2c common/built-in.o
 .text.do_fixup_by_prop
                0x00000000       0x94 common/built-in.o
 .text.do_fixup_by_prop_u32
                0x00000000       0x3c common/built-in.o
 .text.do_fixup_by_compat
                0x00000000       0x88 common/built-in.o
 .text.do_fixup_by_compat_u32
                0x00000000       0x2c common/built-in.o
 .text.fdt_increase_size
                0x00000000       0x14 common/built-in.o
 .text.fdt_del_node_and_alias
                0x00000000       0x44 common/built-in.o
 .text.fdt_translate_address
                0x00000000      0x29c common/built-in.o
 .text.fdt_node_offset_by_compat_reg
                0x00000000       0x88 common/built-in.o
 .text.fdt_alloc_phandle
                0x00000000       0x58 common/built-in.o
 .text.fdt_set_phandle
                0x00000000       0x60 common/built-in.o
 .text.fdt_create_phandle
                0x00000000       0x64 common/built-in.o
 .text.fdt_set_node_status
                0x00000000      0x118 common/built-in.o
 .text.fdt_set_status_by_alias
                0x00000000       0x2c common/built-in.o
 .text.fdt_verify_alias_address
                0x00000000       0xcc common/built-in.o
 .text.fdt_get_base_address
                0x00000000       0x7c common/built-in.o
 .text.hash_block
                0x00000000       0x74 common/built-in.o
 .text.unset_local_var
                0x00000000       0xa0 common/built-in.o
 .text.arch_fixup_memory_node
                0x00000000        0x8 common/built-in.o
 .text.fit_get_timestamp
                0x00000000       0x48 common/built-in.o
 .text.fit_set_timestamp
                0x00000000       0x78 common/built-in.o
 .text.fit_conf_find_compat
                0x00000000      0x1a4 common/built-in.o
 .text.parse_line
                0x00000000       0x88 common/built-in.o
 .text.get_ram_size
                0x00000000       0xe4 common/built-in.o
 .text.mdio_register
                0x00000000       0xa0 common/built-in.o
 .text.miiphy_link
                0x00000000       0x54 common/built-in.o
 .text.__splash_screen_prepare
                0x00000000        0x8 common/built-in.o
 .text.usb_submit_int_msg
                0x00000000        0x4 common/built-in.o
 .text.usb_set_protocol
                0x00000000       0x4c common/built-in.o
 .text.usb_set_idle
                0x00000000       0x50 common/built-in.o
 .text.usb_get_report
                0x00000000       0x58 common/built-in.o
 .text.usb_get_class_descriptor
                0x00000000       0x58 common/built-in.o
 .text.board_usb_init
                0x00000000        0x8 common/built-in.o
 .rodata.__FUNCTION__.7303
                0x00000000       0x17 common/built-in.o
 .data          0x00000000        0x0 common/built-in.o
 .data.mmap_threshold
                0x00000000        0x4 common/built-in.o
 .data.of_busses
                0x00000000       0x14 common/built-in.o
 .data.hash_algo
                0x00000000       0x10 common/built-in.o
 .bss           0x00000000        0x0 common/built-in.o
 .bss.n_mmaps_max
                0x00000000        0x4 common/built-in.o
 .text          0x00000000        0x0 disk/built-in.o
 .data          0x00000000        0x0 disk/built-in.o
 .bss           0x00000000        0x0 disk/built-in.o
 .text          0x00000000        0x0 drivers/built-in.o
 .data          0x00000000        0x0 drivers/built-in.o
 .bss           0x00000000        0x0 drivers/built-in.o
 .text          0x00000000        0x0 drivers/i2c/built-in.o
 .text.i2c_reloc_fixup
                0x00000000        0x4 drivers/i2c/built-in.o
 .text.__def_i2c_init_board
                0x00000000        0x4 drivers/i2c/built-in.o
 .text.i2c_reg_read
                0x00000000       0x20 drivers/i2c/built-in.o
 .text.i2c_reg_write
                0x00000000       0x20 drivers/i2c/built-in.o
 .data          0x00000000        0x0 drivers/i2c/built-in.o
 .bss           0x00000000        0x0 drivers/i2c/built-in.o
 .text          0x00000000        0x0 drivers/input/built-in.o
 .text.input_tstc
                0x00000000       0x48 drivers/input/built-in.o
 .text.input_getc
                0x00000000       0x58 drivers/input/built-in.o
 .text.input_send_keycodes
                0x00000000      0x3bc drivers/input/built-in.o
 .text.input_add_table
                0x00000000       0x40 drivers/input/built-in.o
 .text.input_set_delays
                0x00000000        0xc drivers/input/built-in.o
 .text.input_init
                0x00000000       0xdc drivers/input/built-in.o
 .text.input_stdio_register
                0x00000000       0x54 drivers/input/built-in.o
 .rodata.kbd_to_ansi364
                0x00000000       0x20 drivers/input/built-in.o
 .rodata.kbd_plain_xlate
                0x00000000       0x63 drivers/input/built-in.o
 .rodata.str1.1
                0x00000000       0x16 drivers/input/built-in.o
 .rodata.CSWTCH.28
                0x00000000        0xd drivers/input/built-in.o
 .data          0x00000000        0x0 drivers/input/built-in.o
 .data.kbd_ctrl_xlate
                0x00000000       0x63 drivers/input/built-in.o
 .data.kbd_shift_xlate
                0x00000000       0x63 drivers/input/built-in.o
 .bss           0x00000000        0x0 drivers/input/built-in.o
 .comment       0x00000000       0x31 drivers/input/built-in.o
 .note.GNU-stack
                0x00000000        0x0 drivers/input/built-in.o
 .ARM.attributes
                0x00000000       0x2d drivers/input/built-in.o
 .debug_aranges
                0x00000000       0x50 drivers/input/built-in.o
 .debug_info    0x00000000     0x10f7 drivers/input/built-in.o
 .debug_abbrev  0x00000000      0x3e0 drivers/input/built-in.o
 .debug_line    0x00000000      0x33f drivers/input/built-in.o
 .debug_frame   0x00000000       0xd0 drivers/input/built-in.o
 .debug_str     0x00000000      0x726 drivers/input/built-in.o
 .debug_loc     0x00000000      0xb43 drivers/input/built-in.o
 .debug_ranges  0x00000000      0x1a0 drivers/input/built-in.o
 .text          0x00000000        0x0 drivers/mmc/built-in.o
 .text.mmc_set_preinit
                0x00000000        0x8 drivers/mmc/built-in.o
 .data          0x00000000        0x0 drivers/mmc/built-in.o
 .bss           0x00000000        0x0 drivers/mmc/built-in.o
 .text          0x00000000        0x0 drivers/mtd/spi/built-in.o
 .text.spi_flash_cmd_write_status
                0x00000000       0x2c drivers/mtd/spi/built-in.o
 .data          0x00000000        0x0 drivers/mtd/spi/built-in.o
 .bss           0x00000000        0x0 drivers/mtd/spi/built-in.o
 .text          0x00000000        0x0 drivers/net/built-in.o
 .data          0x00000000        0x0 drivers/net/built-in.o
 .bss           0x00000000        0x0 drivers/net/built-in.o
 .text          0x00000000        0x0 drivers/net/phy/built-in.o
 .text.miiphy_reset
                0x00000000       0x24 drivers/net/phy/built-in.o
 .text.phy_shutdown
                0x00000000       0x20 drivers/net/phy/built-in.o
 .data          0x00000000        0x0 drivers/net/phy/built-in.o
 .bss           0x00000000        0x0 drivers/net/phy/built-in.o
 .text          0x00000000        0x0 drivers/serial/built-in.o
 .text.serial_reinit_all
                0x00000000       0x2c drivers/serial/built-in.o
 .text.default_serial_puts
                0x00000000       0x30 drivers/serial/built-in.o
 .data          0x00000000        0x0 drivers/serial/built-in.o
 .bss           0x00000000        0x0 drivers/serial/built-in.o
 .text          0x00000000        0x0 drivers/spi/built-in.o
 .text.spi_set_wordlen
                0x00000000       0x30 drivers/spi/built-in.o
 .text.spi_cs_is_valid
                0x00000000       0x14 drivers/spi/built-in.o
 .text.spi_cs_activate
                0x00000000        0x4 drivers/spi/built-in.o
 .text.spi_cs_deactivate
                0x00000000        0x4 drivers/spi/built-in.o
 .data          0x00000000        0x0 drivers/spi/built-in.o
 .bss           0x00000000        0x0 drivers/spi/built-in.o
 .text          0x00000000        0x0 drivers/usb/host/built-in.o
 .data          0x00000000        0x0 drivers/usb/host/built-in.o
 .bss           0x00000000        0x0 drivers/usb/host/built-in.o
 .text          0x00000000        0x0 drivers/usb/ulpi/built-in.o
 .text.ulpi_select_transceiver
                0x00000000       0x5c drivers/usb/ulpi/built-in.o
 .text.ulpi_set_vbus
                0x00000000       0x1c drivers/usb/ulpi/built-in.o
 .text.ulpi_set_vbus_indicator
                0x00000000       0x70 drivers/usb/ulpi/built-in.o
 .text.ulpi_set_pd
                0x00000000       0x14 drivers/usb/ulpi/built-in.o
 .text.ulpi_opmode_sel
                0x00000000       0x78 drivers/usb/ulpi/built-in.o
 .text.ulpi_serial_mode_enable
                0x00000000       0x3c drivers/usb/ulpi/built-in.o
 .text.ulpi_suspend
                0x00000000       0x34 drivers/usb/ulpi/built-in.o
 .text.__ulpi_reset_wait
                0x00000000       0x50 drivers/usb/ulpi/built-in.o
 .text.ulpi_reset
                0x00000000       0x44 drivers/usb/ulpi/built-in.o
 .rodata.__func__.6992
                0x00000000       0x10 drivers/usb/ulpi/built-in.o
 .rodata.__func__.7001
                0x00000000       0x18 drivers/usb/ulpi/built-in.o
 .rodata.__func__.7006
                0x00000000        0xd drivers/usb/ulpi/built-in.o
 .rodata.__func__.6957
                0x00000000       0x18 drivers/usb/ulpi/built-in.o
 .rodata.__func__.7015
                0x00000000       0x12 drivers/usb/ulpi/built-in.o
 .rodata.__func__.7022
                0x00000000        0xb drivers/usb/ulpi/built-in.o
 .data          0x00000000        0x0 drivers/usb/ulpi/built-in.o
 .bss           0x00000000        0x0 drivers/usb/ulpi/built-in.o
 .text          0x00000000        0x0 fs/built-in.o
 .text.print_revoke_blks
                0x00000000       0x54 fs/built-in.o
 .text.fat_register_device
                0x00000000       0x88 fs/built-in.o
 .text.file_fat_read
                0x00000000       0x14 fs/built-in.o
 .text.file_getfsname
                0x00000000       0x14 fs/built-in.o
 .text.file_cd  0x00000000      0x1bc fs/built-in.o
 .text.file_detectfs
                0x00000000       0x40 fs/built-in.o
 .text.file_ls  0x00000000       0x98 fs/built-in.o
 .text.file_read
                0x00000000       0xa4 fs/built-in.o
 .text.fs_write
                0x00000000       0x84 fs/built-in.o
 .text.do_save  0x00000000      0x128 fs/built-in.o
 .rodata.filesystems
                0x00000000       0x18 fs/built-in.o
 .data          0x00000000        0x0 fs/built-in.o
 .data.file_cwd
                0x00000000      0x200 fs/built-in.o
 .data.current_filesystem
                0x00000000        0x4 fs/built-in.o
 .bss           0x00000000        0x0 fs/built-in.o
 .bss.ext4fs_symlinknest
                0x00000000        0x4 fs/built-in.o
 .text          0x00000000        0x0 lib/built-in.o
 .text.crc32_wd_buf
                0x00000000       0x40 lib/built-in.o
 .text.crc7     0x00000000       0x24 lib/built-in.o
 .text.crc8     0x00000000       0x40 lib/built-in.o
 .text.display_options
                0x00000000       0x20 lib/built-in.o
 .text.initcall_run_list
                0x00000000       0x2c lib/built-in.o
 .text.ldiv     0x00000000       0x50 lib/built-in.o
 .text.lmb_dump_all
                0x00000000        0x4 lib/built-in.o
 .text.lmb_is_reserved
                0x00000000       0x5c lib/built-in.o
 .text.__arch_lmb_reserve
                0x00000000        0x4 lib/built-in.o
 .text.md5      0x00000000       0x68 lib/built-in.o
 .text.sha1_csum
                0x00000000       0x40 lib/built-in.o
 .text.sha1_hmac
                0x00000000      0x124 lib/built-in.o
 .text.sha1_self_test
                0x00000000        0x8 lib/built-in.o
 .text.strncasecmp
                0x00000000       0x9c lib/built-in.o
 .text.strcasecmp
                0x00000000        0x8 lib/built-in.o
 .text.strsep   0x00000000       0x38 lib/built-in.o
 .text.strswab  0x00000000       0x48 lib/built-in.o
 .text.bcopy    0x00000000       0x24 lib/built-in.o
 .text.memscan  0x00000000       0x2c lib/built-in.o
 .text.memchr_inv
                0x00000000      0x130 lib/built-in.o
 .text.strmhz   0x00000000       0x64 lib/built-in.o
 .text.tick_to_time
                0x00000000       0x64 lib/built-in.o
 .text.get_ticks
                0x00000000       0x40 lib/built-in.o
 .text.get_timer
                0x00000000       0x18 lib/built-in.o
 .text.timer_get_us
                0x00000000       0x24 lib/built-in.o
 .text.__udelay
                0x00000000       0x84 lib/built-in.o
 .text.ustrtoul
                0x00000000       0x70 lib/built-in.o
 .text.ustrtoull
                0x00000000       0x88 lib/built-in.o
 .text.__assert_fail
                0x00000000       0x14 lib/built-in.o
 .text.print_grouped_ull
                0x00000000       0x88 lib/built-in.o
 .text.inflateInit_
                0x00000000       0x14 lib/built-in.o
 .rodata.crc7_syndrome_table
                0x00000000      0x100 lib/built-in.o
 .rodata.z_errmsg
                0x00000000       0x28 lib/built-in.o
 .data          0x00000000        0x0 lib/built-in.o
 .bss           0x00000000        0x0 lib/built-in.o
 .text          0x00000000        0x0 lib/libfdt/built-in.o
 .text.fdt_create_empty_tree
                0x00000000       0x74 lib/libfdt/built-in.o
 .text.fdt_getprop_by_offset
                0x00000000       0x48 lib/libfdt/built-in.o
 .text.fdt_get_phandle
                0x00000000       0x70 lib/libfdt/built-in.o
 .text.fdt_get_alias
                0x00000000       0x28 lib/libfdt/built-in.o
 .text.fdt_get_path
                0x00000000      0x138 lib/libfdt/built-in.o
 .text.fdt_parent_offset
                0x00000000       0x30 lib/libfdt/built-in.o
 .text.fdt_node_offset_by_prop_value
                0x00000000       0x9c lib/libfdt/built-in.o
 .text.fdt_node_offset_by_phandle
                0x00000000       0x78 lib/libfdt/built-in.o
 .text.fdt_stringlist_contains
                0x00000000       0x7c lib/libfdt/built-in.o
 .text.fdt_node_check_compatible
                0x00000000       0x40 lib/libfdt/built-in.o
 .text.fdt_node_offset_by_compatible
                0x00000000       0x74 lib/libfdt/built-in.o
 .text.fdt_set_name
                0x00000000       0x88 lib/libfdt/built-in.o
 .text.fdt_appendprop
                0x00000000       0xd0 lib/libfdt/built-in.o
 .text.fdt_pack
                0x00000000       0x5c lib/libfdt/built-in.o
 .text._fdt_sw_check_header
                0x00000000       0x1c lib/libfdt/built-in.o
 .text._fdt_grab_space
                0x00000000       0x6c lib/libfdt/built-in.o
 .text.fdt_create
                0x00000000       0x64 lib/libfdt/built-in.o
 .text.fdt_add_reservemap_entry
                0x00000000       0x90 lib/libfdt/built-in.o
 .text.fdt_finish_reservemap
                0x00000000       0x1c lib/libfdt/built-in.o
 .text.fdt_begin_node
                0x00000000       0x68 lib/libfdt/built-in.o
 .text.fdt_end_node
                0x00000000       0x40 lib/libfdt/built-in.o
 .text.fdt_property
                0x00000000      0x114 lib/libfdt/built-in.o
 .text.fdt_finish
                0x00000000      0x100 lib/libfdt/built-in.o
 .text.fdt_setprop_inplace
                0x00000000       0x44 lib/libfdt/built-in.o
 .text.fdt_nop_property
                0x00000000       0x40 lib/libfdt/built-in.o
 .text.fdt_nop_node
                0x00000000       0x50 lib/libfdt/built-in.o
 .text.fdt_find_regions
                0x00000000      0x39c lib/libfdt/built-in.o
 .data          0x00000000        0x0 lib/libfdt/built-in.o
 .bss           0x00000000        0x0 lib/libfdt/built-in.o
 .text          0x00000000        0x0 net/built-in.o
 .text.eth_get_dev_by_name
                0x00000000       0x84 net/built-in.o
 .text.eth_unregister
                0x00000000       0x8c net/built-in.o
 .text.net_get_udp_handler
                0x00000000       0x10 net/built-in.o
 .text.net_set_arp_handler
                0x00000000       0x20 net/built-in.o
 .text.random_port
                0x00000000       0x18 net/built-in.o
 .text.VLAN_to_string
                0x00000000       0x3c net/built-in.o
 .rodata.__FUNCTION__.7379
                0x00000000       0x14 net/built-in.o
 .data          0x00000000        0x0 net/built-in.o
 .data.TftpRRQTimeoutMSecs
                0x00000000        0x4 net/built-in.o
 .bss           0x00000000        0x0 net/built-in.o
 .bss.net_busy_flag
                0x00000000        0x4 net/built-in.o
 .text          0x00000000        0x0 /home/ugrads/p/philipsmith/ecen449/lab04/u-boot/arch/arm/lib/eabi_compat.o
 .data          0x00000000        0x0 /home/ugrads/p/philipsmith/ecen449/lab04/u-boot/arch/arm/lib/eabi_compat.o
 .bss           0x00000000        0x0 /home/ugrads/p/philipsmith/ecen449/lab04/u-boot/arch/arm/lib/eabi_compat.o
 .text.__aeabi_unwind_cpp_pr0
                0x00000000        0x4 /home/ugrads/p/philipsmith/ecen449/lab04/u-boot/arch/arm/lib/eabi_compat.o
 .text.__aeabi_unwind_cpp_pr1
                0x00000000        0x4 /home/ugrads/p/philipsmith/ecen449/lab04/u-boot/arch/arm/lib/eabi_compat.o
 .data          0x00000000        0x0 /opt/coe/Xilinx/SDK/2015.2/gnu/arm/lin/bin/../lib/gcc/arm-xilinx-linux-gnueabi/4.9.1/libgcc.a(_udivsi3.o)
 .bss           0x00000000        0x0 /opt/coe/Xilinx/SDK/2015.2/gnu/arm/lin/bin/../lib/gcc/arm-xilinx-linux-gnueabi/4.9.1/libgcc.a(_udivsi3.o)
 .data          0x00000000        0x0 /opt/coe/Xilinx/SDK/2015.2/gnu/arm/lin/bin/../lib/gcc/arm-xilinx-linux-gnueabi/4.9.1/libgcc.a(_divsi3.o)
 .bss           0x00000000        0x0 /opt/coe/Xilinx/SDK/2015.2/gnu/arm/lin/bin/../lib/gcc/arm-xilinx-linux-gnueabi/4.9.1/libgcc.a(_divsi3.o)
 .data          0x00000000        0x0 /opt/coe/Xilinx/SDK/2015.2/gnu/arm/lin/bin/../lib/gcc/arm-xilinx-linux-gnueabi/4.9.1/libgcc.a(_lshrdi3.o)
 .bss           0x00000000        0x0 /opt/coe/Xilinx/SDK/2015.2/gnu/arm/lin/bin/../lib/gcc/arm-xilinx-linux-gnueabi/4.9.1/libgcc.a(_lshrdi3.o)
 .data          0x00000000        0x0 /opt/coe/Xilinx/SDK/2015.2/gnu/arm/lin/bin/../lib/gcc/arm-xilinx-linux-gnueabi/4.9.1/libgcc.a(_ashldi3.o)
 .bss           0x00000000        0x0 /opt/coe/Xilinx/SDK/2015.2/gnu/arm/lin/bin/../lib/gcc/arm-xilinx-linux-gnueabi/4.9.1/libgcc.a(_ashldi3.o)
 .data          0x00000000        0x0 /opt/coe/Xilinx/SDK/2015.2/gnu/arm/lin/bin/../lib/gcc/arm-xilinx-linux-gnueabi/4.9.1/libgcc.a(_dvmd_lnx.o)
 .bss           0x00000000        0x0 /opt/coe/Xilinx/SDK/2015.2/gnu/arm/lin/bin/../lib/gcc/arm-xilinx-linux-gnueabi/4.9.1/libgcc.a(_dvmd_lnx.o)

Memory Configuration

Name             Origin             Length             Attributes
*default*        0x00000000         0xffffffff

Linker script and memory map

                0x00000000                . = 0x0
                0x00000000                . = ALIGN (0x4)

.text           0x04000000    0x3914c
 *(.__image_copy_start)
 .__image_copy_start
                0x04000000        0x0 arch/arm/lib/built-in.o
                0x04000000                __image_copy_start
 arch/arm/cpu/armv7/start.o(.text*)
 .text          0x04000000      0x3a0 arch/arm/cpu/armv7/start.o
                0x04000000                _start
                0x04000040                _end_vect
                0x04000040                _TEXT_BASE
                0x04000044                _bss_start_ofs
                0x04000048                _bss_end_ofs
                0x0400004c                _end_ofs
                0x04000050                IRQ_STACK_START_IN
                0x04000094                c_runtime_cpu_setup
                0x040000ac                save_boot_params
                0x040000b0                cpu_init_cp15
                0x040000e8                cpu_init_crit
 *(.text*)
 .text.syscall  0x040003a0       0x6c api/built-in.o
                0x040003a0                syscall
 .text.API_display_clear
                0x0400040c       0x10 api/built-in.o
 .text.API_display_draw_bitmap
                0x0400041c        0x8 api/built-in.o
 .text.API_display_get_info
                0x04000424        0x8 api/built-in.o
 .text.API_env_enum
                0x0400042c       0xb0 api/built-in.o
 .text.API_env_set
                0x040004dc       0x34 api/built-in.o
 .text.API_env_get
                0x04000510       0x40 api/built-in.o
 .text.API_dev_write
                0x04000550       0x68 api/built-in.o
 .text.API_dev_read
                0x040005b8       0xc0 api/built-in.o
 .text.API_dev_close
                0x04000678       0x64 api/built-in.o
 .text.API_dev_open
                0x040006dc       0x70 api/built-in.o
 .text.API_dev_enum
                0x0400074c       0x5c api/built-in.o
 .text.API_get_timer
                0x040007a8       0x38 api/built-in.o
 .text.API_udelay
                0x040007e0       0x28 api/built-in.o
 .text.API_get_sys_info
                0x04000808       0x2c api/built-in.o
 .text.API_reset
                0x04000834       0x20 api/built-in.o
 .text.API_puts
                0x04000854       0x24 api/built-in.o
 .text.API_tstc
                0x04000878       0x28 api/built-in.o
 .text.API_putc
                0x040008a0       0x28 api/built-in.o
 .text.API_getc
                0x040008c8       0x28 api/built-in.o
 .text.api_init
                0x040008f0      0x16c api/built-in.o
                0x040008f0                api_init
 .text.platform_set_mr
                0x04000a5c       0x78 api/built-in.o
                0x04000a5c                platform_set_mr
 .text.display_get_info
                0x04000ad4       0x10 api/built-in.o
                0x04000ad4                display_get_info
 .text.display_draw_bitmap
                0x04000ae4       0x10 api/built-in.o
                0x04000ae4                display_draw_bitmap
 .text.display_clear
                0x04000af4        0x4 api/built-in.o
                0x04000af4                display_clear
 .text.dev_open_net
                0x04000af8       0x38 api/built-in.o
                0x04000af8                dev_open_net
 .text.dev_close_net
                0x04000b30       0x2c api/built-in.o
                0x04000b30                dev_close_net
 .text.dev_enum_net
                0x04000b5c       0x44 api/built-in.o
                0x04000b5c                dev_enum_net
 .text.dev_write_net
                0x04000ba0        0xc api/built-in.o
                0x04000ba0                dev_write_net
 .text.dev_read_net
                0x04000bac        0xc api/built-in.o
                0x04000bac                dev_read_net
 .text.platform_sys_info
                0x04000bb8       0x24 api/built-in.o
                0x04000bb8                platform_sys_info
 .text.dev_stor_type
                0x04000bdc       0x64 api/built-in.o
 .text.dev_stor_get
                0x04000c40      0x134 api/built-in.o
 .text.dev_stor_is_valid
                0x04000d74       0x64 api/built-in.o
 .text.dev_stor_init
                0x04000dd8       0x58 api/built-in.o
                0x04000dd8                dev_stor_init
 .text.dev_enum_reset
                0x04000e30       0x2c api/built-in.o
                0x04000e30                dev_enum_reset
 .text.dev_enum_storage
                0x04000e5c      0x110 api/built-in.o
                0x04000e5c                dev_enum_storage
 .text.dev_open_stor
                0x04000f6c       0x34 api/built-in.o
                0x04000f6c                dev_open_stor
 .text.dev_close_stor
                0x04000fa0        0x8 api/built-in.o
                0x04000fa0                dev_close_stor
 .text.dev_read_stor
                0x04000fa8       0xb4 api/built-in.o
                0x04000fa8                dev_read_stor
 .text.v7_maint_dcache_all
                0x0400105c       0xd0 arch/arm/cpu/armv7/built-in.o
 .text.invalidate_icache_all
                0x0400112c       0x18 arch/arm/cpu/armv7/built-in.o
                0x0400112c                invalidate_icache_all
 .text.__v7_outer_cache_enable
                0x04001144        0x4 arch/arm/cpu/armv7/built-in.o
                0x04001144                __v7_outer_cache_enable
                0x04001144                v7_outer_cache_enable
 .text.__v7_outer_cache_disable
                0x04001148        0x4 arch/arm/cpu/armv7/built-in.o
                0x04001148                v7_outer_cache_disable
                0x04001148                __v7_outer_cache_disable
 .text.__v7_outer_cache_flush_all
                0x0400114c        0x4 arch/arm/cpu/armv7/built-in.o
                0x0400114c                __v7_outer_cache_flush_all
                0x0400114c                v7_outer_cache_flush_all
 .text.flush_dcache_all
                0x04001150       0x14 arch/arm/cpu/armv7/built-in.o
                0x04001150                flush_dcache_all
 .text.__v7_outer_cache_inval_all
                0x04001164        0x4 arch/arm/cpu/armv7/built-in.o
                0x04001164                v7_outer_cache_inval_all
                0x04001164                __v7_outer_cache_inval_all
 .text.invalidate_dcache_all
                0x04001168       0x14 arch/arm/cpu/armv7/built-in.o
                0x04001168                invalidate_dcache_all
 .text.arm_init_before_mmu
                0x0400117c       0x28 arch/arm/cpu/armv7/built-in.o
                0x0400117c                arm_init_before_mmu
 .text.__v7_outer_cache_flush_range
                0x040011a4        0x4 arch/arm/cpu/armv7/built-in.o
                0x040011a4                v7_outer_cache_flush_range
                0x040011a4                __v7_outer_cache_flush_range
 .text.flush_dcache_range
                0x040011a8       0x3c arch/arm/cpu/armv7/built-in.o
                0x040011a8                flush_dcache_range
 .text.mmu_page_table_flush
                0x040011e4       0x24 arch/arm/cpu/armv7/built-in.o
                0x040011e4                mmu_page_table_flush
 .text.flush_cache
                0x04001208        0x8 arch/arm/cpu/armv7/built-in.o
                0x04001208                flush_cache
 .text.__v7_outer_cache_inval_range
                0x04001210        0x4 arch/arm/cpu/armv7/built-in.o
                0x04001210                __v7_outer_cache_inval_range
                0x04001210                v7_outer_cache_inval_range
 .text.invalidate_dcache_range
                0x04001214       0xac arch/arm/cpu/armv7/built-in.o
                0x04001214                invalidate_dcache_range
 .text.cpu_cache_initialization
                0x040012c0        0x4 arch/arm/cpu/armv7/built-in.o
                0x040012c0                cpu_cache_initialization
 .text.cleanup_before_linux
                0x040012c4       0x28 arch/arm/cpu/armv7/built-in.o
                0x040012c4                cleanup_before_linux
 .text          0x040012ec       0x24 arch/arm/cpu/armv7/zynq/built-in.o
                0x040012ec                lowlevel_init
 .text.ddr2x_get_rate
                0x04001310       0x3c arch/arm/cpu/armv7/zynq/built-in.o
 .text.ddr3x_get_rate
                0x0400134c       0x3c arch/arm/cpu/armv7/zynq/built-in.o
 .text.zynq_clk_periph_get_rate
                0x04001388       0x7c arch/arm/cpu/armv7/zynq/built-in.o
 .text.__zynq_clk_pll_get_rate
                0x04001404       0x20 arch/arm/cpu/armv7/zynq/built-in.o
 .text.zynq_clk_pll_get_rate
                0x04001424        0x8 arch/arm/cpu/armv7/zynq/built-in.o
 .text.zynq_clk_periph_set_rate
                0x0400142c      0x11c arch/arm/cpu/armv7/zynq/built-in.o
 .text.zynq_clk_register_periph_clk
                0x04001548       0x5c arch/arm/cpu/armv7/zynq/built-in.o
 .text.zynq_clk_early_init
                0x040015a4       0x58 arch/arm/cpu/armv7/zynq/built-in.o
                0x040015a4                zynq_clk_early_init
 .text.get_uart_clk
                0x040015fc       0x50 arch/arm/cpu/armv7/zynq/built-in.o
                0x040015fc                get_uart_clk
 .text.set_cpu_clk_info
                0x0400164c      0x604 arch/arm/cpu/armv7/zynq/built-in.o
                0x0400164c                set_cpu_clk_info
 .text.zynq_clk_get_rate
                0x04001c50       0x20 arch/arm/cpu/armv7/zynq/built-in.o
                0x04001c50                zynq_clk_get_rate
 .text.zynq_clk_set_rate
                0x04001c70       0x40 arch/arm/cpu/armv7/zynq/built-in.o
                0x04001c70                zynq_clk_set_rate
 .text.soc_clk_dump
                0x04001cb0       0x50 arch/arm/cpu/armv7/zynq/built-in.o
                0x04001cb0                soc_clk_dump
 .text.arch_cpu_init
                0x04001d00       0x60 arch/arm/cpu/armv7/zynq/built-in.o
                0x04001d00                arch_cpu_init
 .text.reset_cpu
                0x04001d60        0xc arch/arm/cpu/armv7/zynq/built-in.o
                0x04001d60                reset_cpu
 .text.enable_caches
                0x04001d6c        0x4 arch/arm/cpu/armv7/zynq/built-in.o
                0x04001d6c                enable_caches
 .text.zynq_ddrc_init
                0x04001d70       0x64 arch/arm/cpu/armv7/zynq/built-in.o
                0x04001d70                zynq_ddrc_init
 .text.zynq_slcr_lock
                0x04001dd4       0x2c arch/arm/cpu/armv7/zynq/built-in.o
                0x04001dd4                zynq_slcr_lock
 .text.zynq_slcr_unlock
                0x04001e00       0x2c arch/arm/cpu/armv7/zynq/built-in.o
                0x04001e00                zynq_slcr_unlock
 .text.zynq_slcr_cpu_reset
                0x04001e2c       0x24 arch/arm/cpu/armv7/zynq/built-in.o
                0x04001e2c                zynq_slcr_cpu_reset
 .text.zynq_slcr_gem_clk_setup
                0x04001e50       0x68 arch/arm/cpu/armv7/zynq/built-in.o
                0x04001e50                zynq_slcr_gem_clk_setup
 .text.zynq_slcr_devcfg_disable
                0x04001eb8       0x24 arch/arm/cpu/armv7/zynq/built-in.o
                0x04001eb8                zynq_slcr_devcfg_disable
 .text.zynq_slcr_devcfg_enable
                0x04001edc       0x24 arch/arm/cpu/armv7/zynq/built-in.o
                0x04001edc                zynq_slcr_devcfg_enable
 .text.zynq_slcr_get_boot_mode
                0x04001f00        0xc arch/arm/cpu/armv7/zynq/built-in.o
                0x04001f00                zynq_slcr_get_boot_mode
 .text.zynq_slcr_get_idcode
                0x04001f0c       0x10 arch/arm/cpu/armv7/zynq/built-in.o
                0x04001f0c                zynq_slcr_get_idcode
 .text.zynq_slcr_get_mio_pin_status
                0x04001f1c       0xa0 arch/arm/cpu/armv7/zynq/built-in.o
                0x04001f1c                zynq_slcr_get_mio_pin_status
 .text.timer_init
                0x04001fbc       0x68 arch/arm/cpu/armv7/zynq/built-in.o
                0x04001fbc                timer_init
 .text.get_timer_masked
                0x04002024       0x50 arch/arm/cpu/armv7/zynq/built-in.o
                0x04002024                get_timer_masked
 .text.__udelay
                0x04002074       0x90 arch/arm/cpu/armv7/zynq/built-in.o
                0x04002074                __udelay
 .text.get_timer
                0x04002104       0x14 arch/arm/cpu/armv7/zynq/built-in.o
                0x04002104                get_timer
 .text.get_ticks
                0x04002118       0x10 arch/arm/cpu/armv7/zynq/built-in.o
                0x04002118                get_ticks
 .text.get_tbclk
                0x04002128        0x8 arch/arm/cpu/armv7/zynq/built-in.o
                0x04002128                get_tbclk
 .text          0x04002130       0xe8 arch/arm/lib/built-in.o
                0x04002130                _main
                0x040021b4                relocate_code
 .text.init_func_i2c
                0x04002218       0x28 arch/arm/lib/built-in.o
 .text.display_banner
                0x04002240       0x20 arch/arm/lib/built-in.o
 .text.init_baudrate
                0x04002260       0x2c arch/arm/lib/built-in.o
 .text.mark_bootstage
                0x0400228c       0x14 arch/arm/lib/built-in.o
 .text.__coloured_LED_init
                0x040022a0        0x4 arch/arm/lib/built-in.o
                0x040022a0                coloured_LED_init
                0x040022a0                __coloured_LED_init
 .text.__red_led_on
                0x040022a4        0x4 arch/arm/lib/built-in.o
                0x040022a4                __red_led_on
                0x040022a4                red_led_on
 .text.__dram_init_banksize
                0x040022a8       0x1c arch/arm/lib/built-in.o
                0x040022a8                __dram_init_banksize
                0x040022a8                dram_init_banksize
 .text.__power_init_board
                0x040022c4        0x8 arch/arm/lib/built-in.o
                0x040022c4                __power_init_board
                0x040022c4                power_init_board
 .text.board_init_f
                0x040022cc      0x114 arch/arm/lib/built-in.o
                0x040022cc                board_init_f
 .text.board_init_r
                0x040023e0       0xc4 arch/arm/lib/built-in.o
                0x040023e0                board_init_r
 .text.arch_fixup_memory_node
                0x040024a4        0x8 arch/arm/lib/built-in.o
                0x040024a4                arch_fixup_memory_node
 .text.boot_jump_linux
                0x040024ac       0xb8 arch/arm/lib/built-in.o
 .text.boot_prep_linux
                0x04002564       0x40 arch/arm/lib/built-in.o
 .text.arch_lmb_reserve
                0x040025a4       0x24 arch/arm/lib/built-in.o
                0x040025a4                arch_lmb_reserve
 .text.do_bootm_linux
                0x040025c8       0x5c arch/arm/lib/built-in.o
                0x040025c8                do_bootm_linux
 .text.bootz_setup
                0x04002624       0x60 arch/arm/lib/built-in.o
                0x04002624                bootz_setup
 .text.boot_prep_vxworks
                0x04002684       0x50 arch/arm/lib/built-in.o
                0x04002684                boot_prep_vxworks
 .text.boot_jump_vxworks
                0x040026d4        0xc arch/arm/lib/built-in.o
                0x040026d4                boot_jump_vxworks
 .text.cp_delay
                0x040026e0       0x30 arch/arm/lib/built-in.o
 .text.arm_init_domains
                0x04002710        0x4 arch/arm/lib/built-in.o
                0x04002710                arm_init_domains
 .text.set_section_dcache
                0x04002714       0x14 arch/arm/lib/built-in.o
                0x04002714                set_section_dcache
 .text.mmu_set_region_dcache_behaviour
                0x04002728       0x4c arch/arm/lib/built-in.o
                0x04002728                mmu_set_region_dcache_behaviour
 .text.dram_bank_mmu_setup
                0x04002774       0x40 arch/arm/lib/built-in.o
                0x04002774                dram_bank_mmu_setup
 .text.icache_enable
                0x040027b4       0x18 arch/arm/lib/built-in.o
                0x040027b4                icache_enable
 .text.icache_disable
                0x040027cc       0x1c arch/arm/lib/built-in.o
                0x040027cc                icache_disable
 .text.icache_status
                0x040027e8        0xc arch/arm/lib/built-in.o
                0x040027e8                icache_status
 .text.dcache_enable
                0x040027f4       0x70 arch/arm/lib/built-in.o
                0x040027f4                dcache_enable
 .text.dcache_disable
                0x04002864       0x2c arch/arm/lib/built-in.o
                0x04002864                dcache_disable
 .text.dcache_status
                0x04002890        0xc arch/arm/lib/built-in.o
                0x04002890                dcache_status
 .text.interrupt_init
                0x0400289c       0x1c arch/arm/lib/built-in.o
                0x0400289c                interrupt_init
 .text.enable_interrupts
                0x040028b8        0x4 arch/arm/lib/built-in.o
                0x040028b8                enable_interrupts
 .text.disable_interrupts
                0x040028bc        0x8 arch/arm/lib/built-in.o
                0x040028bc                disable_interrupts
 .text.bad_mode
                0x040028c4       0x10 arch/arm/lib/built-in.o
                0x040028c4                bad_mode
 .text.show_regs
                0x040028d4      0x13c arch/arm/lib/built-in.o
                0x040028d4                show_regs
 .text.do_undefined_instruction
                0x04002a10       0x20 arch/arm/lib/built-in.o
                0x04002a10                do_undefined_instruction
 .text.do_software_interrupt
                0x04002a30       0x20 arch/arm/lib/built-in.o
                0x04002a30                do_software_interrupt
 .text.do_prefetch_abort
                0x04002a50       0x20 arch/arm/lib/built-in.o
                0x04002a50                do_prefetch_abort
 .text.do_data_abort
                0x04002a70       0x20 arch/arm/lib/built-in.o
                0x04002a70                do_data_abort
 .text.do_not_used
                0x04002a90       0x20 arch/arm/lib/built-in.o
                0x04002a90                do_not_used
 .text.do_fiq   0x04002ab0       0x20 arch/arm/lib/built-in.o
                0x04002ab0                do_fiq
 .text.do_irq   0x04002ad0       0x20 arch/arm/lib/built-in.o
                0x04002ad0                do_irq
 .text.do_reset
                0x04002af0       0x2c arch/arm/lib/built-in.o
                0x04002af0                do_reset
 .text.board_init
                0x04002b1c       0xd4 board/xilinx/zynq/built-in.o
                0x04002b1c                board_init
 .text.board_late_init
                0x04002bf0       0x9c board/xilinx/zynq/built-in.o
                0x04002bf0                board_late_init
 .text.board_eth_init
                0x04002c8c       0x14 board/xilinx/zynq/built-in.o
                0x04002c8c                board_eth_init
 .text.board_mmc_init
                0x04002ca0        0xc board/xilinx/zynq/built-in.o
                0x04002ca0                board_mmc_init
 .text.dram_init
                0x04002cac       0x18 board/xilinx/zynq/built-in.o
                0x04002cac                dram_init
 .text.print_num
                0x04002cc4       0x18 common/built-in.o
 .text.do_bdinfo
                0x04002cdc      0x1b4 common/built-in.o
                0x04002cdc                do_bdinfo
 .text.do_go_exec
                0x04002e90       0x10 common/built-in.o
                0x04002e90                do_go_exec
 .text.do_go    0x04002ea0       0x6c common/built-in.o
 .text.do_bootm_standalone
                0x04002f0c       0x68 common/built-in.o
 .text.do_bootd
                0x04002f74       0x24 common/built-in.o
                0x04002f74                do_bootd
 .text.image_info
                0x04002f98      0x124 common/built-in.o
 .text.do_bootm_rtems
                0x040030bc       0x70 common/built-in.o
 .text.do_bootm_qnxelf
                0x0400312c       0x8c common/built-in.o
 .text.bootm_find_ramdisk.isra.16
                0x040031b8       0x44 common/built-in.o
 .text.bootm_find_fdt
                0x040031fc       0x5c common/built-in.o
 .text.do_iminfo
                0x04003258       0x60 common/built-in.o
 .text.do_bootm_plan9
                0x040032b8      0x100 common/built-in.o
 .text.__arch_preboot_os
                0x040033b8        0x4 common/built-in.o
                0x040033b8                arch_preboot_os
 .text.do_bootm_states.isra.20.constprop.24
                0x040033bc      0x97c common/built-in.o
 .text.do_bootm
                0x04003d38       0xec common/built-in.o
                0x04003d38                do_bootm
 .text.bootm_maybe_autostart
                0x04003e24       0x78 common/built-in.o
                0x04003e24                bootm_maybe_autostart
 .text.do_bootvx_fdt
                0x04003e9c      0x10c common/built-in.o
                0x04003e9c                do_bootvx_fdt
 .text.do_bootm_vxworks
                0x04003fa8       0x54 common/built-in.o
 .text.do_bootz
                0x04003ffc      0x100 common/built-in.o
                0x04003ffc                do_bootz
 .text.parse_argv
                0x040040fc       0x64 common/built-in.o
 .text.do_icache
                0x04004160       0x88 common/built-in.o
                0x04004160                do_icache
 .text.do_dcache
                0x040041e8       0x88 common/built-in.o
                0x040041e8                do_dcache
 .text.do_clk   0x04004270       0x68 common/built-in.o
 .text.do_clk_dump
                0x040042d8        0x4 common/built-in.o
 .text.do_coninfo
                0x040042dc       0xbc common/built-in.o
 .text.common_diskboot
                0x04004398      0x2bc common/built-in.o
                0x04004398                common_diskboot
 .text.do_echo  0x04004654       0xb0 common/built-in.o
 .text.load_elf_image_shdr
                0x04004704       0x8c common/built-in.o
 .text.do_bootelf_exec
                0x04004790       0x44 common/built-in.o
                0x04004790                do_bootelf_exec
 .text.valid_elf_image
                0x040047d4       0x4c common/built-in.o
                0x040047d4                valid_elf_image
 .text.do_bootelf
                0x04004820      0x158 common/built-in.o
                0x04004820                do_bootelf
 .text.do_bootvx
                0x04004978      0x288 common/built-in.o
                0x04004978                do_bootvx
 .text.do_exit  0x04004c00       0x30 common/built-in.o
 .text.do_ext2ls
                0x04004c30       0x18 common/built-in.o
                0x04004c30                do_ext2ls
 .text.do_ext2load
                0x04004c48       0x18 common/built-in.o
                0x04004c48                do_ext2load
 .text.do_ext4_load
                0x04004c60       0x18 common/built-in.o
                0x04004c60                do_ext4_load
 .text.do_ext4_ls
                0x04004c78       0x18 common/built-in.o
                0x04004c78                do_ext4_ls
 .text.do_ext4_write
                0x04004c90       0xf0 common/built-in.o
                0x04004c90                do_ext4_write
 .text.do_fat_fsload
                0x04004d80       0x18 common/built-in.o
                0x04004d80                do_fat_fsload
 .text.do_fat_ls
                0x04004d98       0x18 common/built-in.o
 .text.do_fat_fsinfo
                0x04004db0       0x90 common/built-in.o
 .text.do_fat_fswrite
                0x04004e40       0xfc common/built-in.o
 .text.fdt_valid
                0x04004f3c       0xbc common/built-in.o
 .text.is_printable_string
                0x04004ff8       0x98 common/built-in.o
 .text.print_data
                0x04005090      0x174 common/built-in.o
 .text.set_working_fdt_addr
                0x04005204       0x1c common/built-in.o
                0x04005204                set_working_fdt_addr
 .text.do_fdt   0x04005220      0xe70 common/built-in.o
 .text.do_fpga  0x04006090      0x420 common/built-in.o
                0x04006090                do_fpga
 .text.do_help  0x040064b0       0x48 common/built-in.o
 .text.get_alen
                0x040064f8       0x3c common/built-in.o
 .text.do_i2c_bus_num
                0x04006534       0xb8 common/built-in.o
                0x04006534                do_i2c_bus_num
 .text.do_i2c   0x040065ec       0x68 common/built-in.o
 .text.do_i2c_reset
                0x04006654       0x30 common/built-in.o
 .text.do_i2c_mw
                0x04006684       0xec common/built-in.o
 .text.do_i2c_read
                0x04006770       0xb0 common/built-in.o
 .text.do_i2c_probe
                0x04006820       0x9c common/built-in.o
 .text.do_i2c_md
                0x040068bc      0x1dc common/built-in.o
 .text.do_i2c_crc
                0x04006a98      0x118 common/built-in.o
 .text.do_i2c_show_bus
                0x04006bb0       0xd8 common/built-in.o
                0x04006bb0                do_i2c_show_bus
 .text.do_i2c_bus_speed
                0x04006c88       0x74 common/built-in.o
 .text.do_i2c_write
                0x04006cfc       0xf0 common/built-in.o
 .text.do_i2c_loop
                0x04006dec       0xe0 common/built-in.o
 .text.mod_i2c_mem.isra.4
                0x04006ecc      0x1f8 common/built-in.o
 .text.do_i2c_nm
                0x040070c4        0x8 common/built-in.o
 .text.do_i2c_mm
                0x040070cc        0x8 common/built-in.o
 .text.i2c_init_board
                0x040070d4        0x4 common/built-in.o
                0x040070d4                i2c_init_board
 .text.evalexp  0x040070d8       0x74 common/built-in.o
 .text.binary_test
                0x0400714c      0x1e0 common/built-in.o
 .text.do_itest
                0x0400732c       0x98 common/built-in.o
 .text.bin_data_init
                0x040073c4       0x2c common/built-in.o
 .text.k_data_save
                0x040073f0       0x4c common/built-in.o
 .text.k_data_restore
                0x0400743c       0x4c common/built-in.o
 .text.getcxmodem
                0x04007488       0x20 common/built-in.o
 .text.load_serial_ymodem
                0x040074a8       0xcc common/built-in.o
 .text.bin_data_char
                0x04007574       0x2c common/built-in.o
 .text.chk1.constprop.1
                0x040075a0       0x2c common/built-in.o
 .text.s1_sendpacket.constprop.2
                0x040075cc       0x50 common/built-in.o
 .text.load_serial
                0x0400761c      0x1e0 common/built-in.o
 .text.do_load_serial
                0x040077fc       0xdc common/built-in.o
 .text.do_load_serial_bin
                0x040078d8      0x7a4 common/built-in.o
 .text.extract_range
                0x0400807c       0xe4 common/built-in.o
 .text.do_mdio  0x04008160      0x4b4 common/built-in.o
 .text.do_mem_mw
                0x04008614       0xc0 common/built-in.o
 .text.do_mem_loop
                0x040086d4       0xec common/built-in.o
 .text.do_mem_md
                0x040087c0       0xec common/built-in.o
 .text.do_mem_cmp
                0x040088ac      0x15c common/built-in.o
 .text.do_mem_base
                0x04008a08       0x40 common/built-in.o
 .text.do_mem_cp
                0x04008a48       0xd8 common/built-in.o
 .text.do_mem_crc
                0x04008b20       0x48 common/built-in.o
 .text.mod_mem.isra.2
                0x04008b68      0x164 common/built-in.o
 .text.do_mem_mm
                0x04008ccc        0x8 common/built-in.o
 .text.do_mem_nm
                0x04008cd4        0x8 common/built-in.o
 .text.do_mii   0x04008cdc      0x7ac common/built-in.o
 .text.do_sleep
                0x04009488       0x70 common/built-in.o
 .text.do_mmcops
                0x040094f8      0x500 common/built-in.o
 .text.do_mmcinfo
                0x040099f8      0x180 common/built-in.o
 .text.netboot_common
                0x04009b78      0x2fc common/built-in.o
 .text.do_bootp
                0x04009e74        0xc common/built-in.o
 .text.do_tftpput
                0x04009e80        0xc common/built-in.o
                0x04009e80                do_tftpput
 .text.do_dhcp  0x04009e8c        0xc common/built-in.o
 .text.do_nfs   0x04009e98        0xc common/built-in.o
 .text.do_tftpb
                0x04009ea4       0x40 common/built-in.o
                0x04009ea4                do_tftpb
 .text.do_ping  0x04009ee4       0x7c common/built-in.o
 .text.do_env_delete
                0x04009f60       0x9c common/built-in.o
 .text.do_env_save
                0x04009ffc       0x2c common/built-in.o
 .text.do_env   0x0400a028       0x68 common/built-in.o
 .text.env_print
                0x0400a090       0xc0 common/built-in.o
 .text.do_env_print
                0x0400a150       0xc8 common/built-in.o
 .text.do_env_import
                0x0400a218      0x244 common/built-in.o
 .text.do_env_default
                0x0400a45c       0xa8 common/built-in.o
 .text._do_env_set.isra.0
                0x0400a504      0x1b8 common/built-in.o
 .text.do_env_set
                0x0400a6bc       0x1c common/built-in.o
 .text.get_env_id
                0x0400a6d8       0x10 common/built-in.o
                0x0400a6d8                get_env_id
 .text.setenv   0x0400a6e8       0x58 common/built-in.o
                0x0400a6e8                setenv
 .text.setenv_ulong
                0x0400a740       0x20 common/built-in.o
                0x0400a740                setenv_ulong
 .text.setenv_hex
                0x0400a760       0x34 common/built-in.o
                0x0400a760                setenv_hex
 .text.do_env_export
                0x0400a794      0x268 common/built-in.o
 .text.envmatch
                0x0400a9fc       0x6c common/built-in.o
                0x0400a9fc                envmatch
 .text.getenv_f
                0x0400aa68       0xc8 common/built-in.o
                0x0400aa68                getenv_f
 .text.getenv   0x0400ab30       0x78 common/built-in.o
                0x0400ab30                getenv
 .text.getenv_hex
                0x0400aba8       0x3c common/built-in.o
                0x0400aba8                getenv_hex
 .text.getenv_ulong
                0x0400abe4       0x30 common/built-in.o
                0x0400abe4                getenv_ulong
 .text.do_env_edit
                0x0400ac14       0x78 common/built-in.o
 .text.bytes_per_second
                0x0400ac8c       0x50 common/built-in.o
 .text.do_spi_flash
                0x0400acdc      0x744 common/built-in.o
 .text.source   0x0400b420      0x1c4 common/built-in.o
                0x0400b420                source
 .text.do_source
                0x0400b5e4       0x70 common/built-in.o
                0x0400b5e4                do_source
 .text.do_spi   0x0400b654      0x25c common/built-in.o
                0x0400b654                do_spi
 .text.do_spl   0x0400b8b0      0x1a0 common/built-in.o
 .text.do_false
                0x0400ba50        0x8 common/built-in.o
 .text.do_true  0x0400ba58        0x8 common/built-in.o
 .text.do_test  0x0400ba60      0x460 common/built-in.o
 .text.usb_get_class_desc
                0x0400bec0       0xbc common/built-in.o
 .text.usb_display_class_sub
                0x0400bf7c      0x170 common/built-in.o
 .text.usb_find_device
                0x0400c0ec       0x3c common/built-in.o
 .text.usb_show_tree_graph
                0x0400c128      0x218 common/built-in.o
 .text.usb_display_string
                0x0400c340       0x44 common/built-in.o
 .text.usb_display_config
                0x0400c384      0x20c common/built-in.o
 .text.do_usbboot
                0x0400c590        0xc common/built-in.o
 .text.usb_display_desc.part.1
                0x0400c59c      0x12c common/built-in.o
 .text.do_usb   0x0400c6c8      0x770 common/built-in.o
 .text.do_version
                0x0400ce38       0x38 common/built-in.o
 .text.do_imgextract
                0x0400ce70      0x3b0 common/built-in.o
 .text.find_cmd_tbl
                0x0400d220       0xa4 common/built-in.o
                0x0400d220                find_cmd_tbl
 .text.find_cmd
                0x0400d2c4       0x28 common/built-in.o
                0x0400d2c4                find_cmd
 .text.cmd_usage
                0x0400d2ec       0x5c common/built-in.o
                0x0400d2ec                cmd_usage
 .text._do_help
                0x0400d348      0x178 common/built-in.o
                0x0400d348                _do_help
 .text.var_complete
                0x0400d4c0       0x7c common/built-in.o
                0x0400d4c0                var_complete
 .text.cmd_auto_complete
                0x0400d53c      0x4b4 common/built-in.o
                0x0400d53c                cmd_auto_complete
 .text.cmd_get_data_size
                0x0400d9f0       0x5c common/built-in.o
                0x0400d9f0                cmd_get_data_size
 .text.cmd_process
                0x0400da4c       0xf4 common/built-in.o
                0x0400da4c                cmd_process
 .text.console_setfile
                0x0400db40       0xa4 common/built-in.o
 .text.fgetc    0x0400dbe4       0x24 common/built-in.o
                0x0400dbe4                fgetc
 .text.ftstc    0x0400dc08       0x24 common/built-in.o
                0x0400dc08                ftstc
 .text.getc     0x0400dc2c       0x24 common/built-in.o
                0x0400dc2c                getc
 .text.tstc     0x0400dc50       0x24 common/built-in.o
                0x0400dc50                tstc
 .text.putc     0x0400dc74       0x30 common/built-in.o
                0x0400dc74                putc
 .text.puts     0x0400dca4       0x30 common/built-in.o
                0x0400dca4                puts
 .text.printf   0x0400dcd4       0x58 common/built-in.o
                0x0400dcd4                printf
 .text.vprintf  0x0400dd2c       0x3c common/built-in.o
                0x0400dd2c                vprintf
 .text.ctrlc    0x0400dd68       0x58 common/built-in.o
                0x0400dd68                ctrlc
 .text.had_ctrlc
                0x0400ddc0       0x10 common/built-in.o
                0x0400ddc0                had_ctrlc
 .text.clear_ctrlc
                0x0400ddd0       0x14 common/built-in.o
                0x0400ddd0                clear_ctrlc
 .text.search_device
                0x0400dde4       0x28 common/built-in.o
                0x0400dde4                search_device
 .text.console_assign
                0x0400de0c       0x48 common/built-in.o
                0x0400de0c                console_assign
 .text.on_console
                0x0400de54       0xc0 common/built-in.o
 .text.console_init_f
                0x0400df14       0x10 common/built-in.o
                0x0400df14                console_init_f
 .text.stdio_print_current_devices
                0x0400df24       0xb0 common/built-in.o
                0x0400df24                stdio_print_current_devices
 .text.console_init_r
                0x0400dfd4       0xe0 common/built-in.o
                0x0400dfd4                console_init_r
 .text.sbrk     0x0400e0b4       0x70 common/built-in.o
                0x0400e0b4                sbrk
 .text.mem_malloc_init
                0x0400e124       0x34 common/built-in.o
                0x0400e124                mem_malloc_init
 .text.malloc_trim
                0x0400e158       0xcc common/built-in.o
                0x0400e158                malloc_trim
 .text.free     0x0400e224      0x234 common/built-in.o
                0x0400e224                free
 .text.malloc   0x0400e458      0x608 common/built-in.o
                0x0400e458                malloc
 .text.calloc   0x0400ea60       0xd4 common/built-in.o
                0x0400ea60                calloc
 .text.realloc  0x0400eb34      0x4c0 common/built-in.o
                0x0400eb34                realloc
 .text.memalign
                0x0400eff4      0x10c common/built-in.o
                0x0400eff4                memalign
 .text.env_attr_walk
                0x0400f100      0x114 common/built-in.o
                0x0400f100                env_attr_walk
 .text.env_attr_lookup
                0x0400f214      0x18c common/built-in.o
                0x0400f214                env_attr_lookup
 .text.clear_callback
                0x0400f3a0       0x10 common/built-in.o
 .text.find_env_callback
                0x0400f3b0       0x68 common/built-in.o
 .text.on_callbacks
                0x0400f418       0x48 common/built-in.o
 .text.set_callback
                0x0400f460       0x94 common/built-in.o
 .text.env_callback_init
                0x0400f4f4       0xc4 common/built-in.o
                0x0400f4f4                env_callback_init
 .text.__env_get_char_spec
                0x0400f5b8        0xc common/built-in.o
                0x0400f5b8                env_get_char_spec
 .text.env_get_addr
                0x0400f5c4       0x20 common/built-in.o
                0x0400f5c4                env_get_addr
 .text.env_get_char_memory
                0x0400f5e4       0x10 common/built-in.o
                0x0400f5e4                env_get_char_memory
 .text.env_get_char
                0x0400f5f4       0x30 common/built-in.o
                0x0400f5f4                env_get_char
 .text.getenv_yesno
                0x0400f624       0x40 common/built-in.o
                0x0400f624                getenv_yesno
 .text.getenv_default
                0x0400f664       0x30 common/built-in.o
                0x0400f664                getenv_default
 .text.set_default_env
                0x0400f694       0xbc common/built-in.o
                0x0400f694                set_default_env
 .text.set_default_vars
                0x0400f750       0x34 common/built-in.o
                0x0400f750                set_default_vars
 .text.env_import
                0x0400f784       0xe0 common/built-in.o
                0x0400f784                env_import
 .text.env_relocate
                0x0400f864       0x30 common/built-in.o
                0x0400f864                env_relocate
 .text.env_complete
                0x0400f894       0xdc common/built-in.o
                0x0400f894                env_complete
 .text.skip_num
                0x0400f970       0x70 common/built-in.o
 .text.clear_flags
                0x0400f9e0       0x10 common/built-in.o
 .text.on_flags
                0x0400f9f0       0x48 common/built-in.o
 .text.env_flags_parse_vartype
                0x0400fa38       0x50 common/built-in.o
                0x0400fa38                env_flags_parse_vartype
 .text.env_flags_parse_varaccess
                0x0400fa88       0x58 common/built-in.o
                0x0400fa88                env_flags_parse_varaccess
 .text.set_flags
                0x0400fae0       0xac common/built-in.o
 .text.env_flags_init
                0x0400fb8c       0xd8 common/built-in.o
                0x0400fb8c                env_flags_init
 .text.env_flags_validate
                0x0400fc64      0x31c common/built-in.o
                0x0400fc64                env_flags_validate
 .text.saveenv  0x0400ff80      0x154 common/built-in.o
                0x0400ff80                saveenv
 .text.env_relocate_spec
                0x040100d4       0xac common/built-in.o
                0x040100d4                env_relocate_spec
 .text.env_init
                0x04010180       0x1c common/built-in.o
                0x04010180                env_init
 .text.dummy    0x0401019c        0x4 common/built-in.o
 .text.get_version
                0x040101a0        0x8 common/built-in.o
                0x040101a0                get_version
 .text.jumptable_init
                0x040101a8      0x1d0 common/built-in.o
                0x040101a8                jumptable_init
 .text.write_cell
                0x04010378       0x50 common/built-in.o
 .text.get_cells_len
                0x040103c8       0x38 common/built-in.o
 .text.fdt_find_and_setprop
                0x04010400       0x70 common/built-in.o
                0x04010400                fdt_find_and_setprop
 .text.fdt_initrd
                0x04010470      0x1e8 common/built-in.o
                0x04010470                fdt_initrd
 .text.fdt_chosen
                0x04010658      0x10c common/built-in.o
                0x04010658                fdt_chosen
 .text.do_fixup_by_path
                0x04010764       0x54 common/built-in.o
                0x04010764                do_fixup_by_path
 .text.fdt_fixup_memory_banks
                0x040107b8      0x1c8 common/built-in.o
                0x040107b8                fdt_fixup_memory_banks
 .text.fdt_fixup_memory
                0x04010980       0x20 common/built-in.o
                0x04010980                fdt_fixup_memory
 .text.fdt_fixup_ethernet
                0x040109a0      0x12c common/built-in.o
                0x040109a0                fdt_fixup_ethernet
 .text.fdt_resize
                0x04010acc       0xcc common/built-in.o
                0x04010acc                fdt_resize
 .text.hash_command
                0x04010b98       0xa0 common/built-in.o
                0x04010b98                hash_command
 .text.b_reset  0x04010c38       0x1c common/built-in.o
 .text.static_get
                0x04010c54       0x1c common/built-in.o
 .text.static_peek
                0x04010c70        0xc common/built-in.o
 .text.file_peek
                0x04010c7c        0xc common/built-in.o
 .text.mapset   0x04010c88       0x20 common/built-in.o
 .text.syntax_err
                0x04010ca8        0xc common/built-in.o
 .text.free_pipe_list
                0x04010cb4       0xe8 common/built-in.o
 .text.xmalloc  0x04010d9c       0x20 common/built-in.o
 .text.new_pipe
                0x04010dbc       0x28 common/built-in.o
 .text.xrealloc
                0x04010de4       0x20 common/built-in.o
 .text.done_command
                0x04010e04       0x84 common/built-in.o
 .text.done_pipe
                0x04010e88       0x4c common/built-in.o
 .text.done_word
                0x04010ed4      0x2a8 common/built-in.o
 .text.do_showvar
                0x0401117c       0xfc common/built-in.o
 .text.is_assignment
                0x04011278       0x5c common/built-in.o
 .text.file_get
                0x040112d4      0x1ec common/built-in.o
 .text.b_addchr
                0x040114c0       0x78 common/built-in.o
 .text.b_addqchr
                0x04011538       0x50 common/built-in.o
 .text.get_local_var
                0x04011588       0xa0 common/built-in.o
                0x04011588                get_local_var
 .text.set_local_var
                0x04011628      0x1ac common/built-in.o
                0x04011628                set_local_var
 .text.insert_var_value_sub
                0x040117d4      0x2c0 common/built-in.o
 .text.parse_string_outer
                0x04011a94       0xe4 common/built-in.o
                0x04011a94                parse_string_outer
 .text.run_list_real
                0x04011b78      0x784 common/built-in.o
 .text.parse_stream_outer
                0x040122fc      0x6ac common/built-in.o
 .text.parse_file_outer
                0x040129a8       0x44 common/built-in.o
                0x040129a8                parse_file_outer
 .text.u_boot_hush_start
                0x040129ec       0x54 common/built-in.o
                0x040129ec                u_boot_hush_start
 .text.fdt_error
                0x04012a40       0x2c common/built-in.o
 .text.boot_fdt_add_mem_rsv_regions
                0x04012a6c       0x88 common/built-in.o
                0x04012a6c                boot_fdt_add_mem_rsv_regions
 .text.boot_relocate_fdt
                0x04012af4      0x194 common/built-in.o
                0x04012af4                boot_relocate_fdt
 .text.boot_get_fdt
                0x04012c88      0x398 common/built-in.o
                0x04012c88                boot_get_fdt
 .text.ft_verify_fdt
                0x04013020        0x8 common/built-in.o
                0x04013020                ft_verify_fdt
 .text.image_setup_libfdt
                0x04013028       0xd8 common/built-in.o
                0x04013028                image_setup_libfdt
 .text.fit_parse_conf
                0x04013100       0x64 common/built-in.o
                0x04013100                fit_parse_conf
 .text.fit_parse_subimage
                0x04013164       0x64 common/built-in.o
                0x04013164                fit_parse_subimage
 .text.fit_get_desc
                0x040131c8       0x30 common/built-in.o
                0x040131c8                fit_get_desc
 .text.fit_image_get_node
                0x040131f8       0x30 common/built-in.o
                0x040131f8                fit_image_get_node
 .text.fit_image_get_os
                0x04013228       0x3c common/built-in.o
                0x04013228                fit_image_get_os
 .text.fit_image_get_arch
                0x04013264       0x3c common/built-in.o
                0x04013264                fit_image_get_arch
 .text.fit_image_get_type
                0x040132a0       0x3c common/built-in.o
                0x040132a0                fit_image_get_type
 .text.fit_image_get_comp
                0x040132dc       0x3c common/built-in.o
                0x040132dc                fit_image_get_comp
 .text.fit_image_get_load
                0x04013318       0x38 common/built-in.o
                0x04013318                fit_image_get_load
 .text.fit_image_get_entry
                0x04013350       0x38 common/built-in.o
                0x04013350                fit_image_get_entry
 .text.fit_image_get_data
                0x04013388       0x40 common/built-in.o
                0x04013388                fit_image_get_data
 .text.fit_image_hash_get_algo
                0x040133c8       0x30 common/built-in.o
                0x040133c8                fit_image_hash_get_algo
 .text.fit_image_hash_get_value
                0x040133f8       0x40 common/built-in.o
                0x040133f8                fit_image_hash_get_value
 .text.fit_image_print_data
                0x04013438      0x140 common/built-in.o
 .text.fit_image_print
                0x04013578      0x334 common/built-in.o
                0x04013578                fit_image_print
 .text.calculate_hash
                0x040138ac       0xc8 common/built-in.o
                0x040138ac                calculate_hash
 .text.fit_image_verify
                0x04013974      0x218 common/built-in.o
                0x04013974                fit_image_verify
 .text.fit_all_image_verify
                0x04013b8c       0xe4 common/built-in.o
                0x04013b8c                fit_all_image_verify
 .text.fit_image_check_os
                0x04013c70       0x30 common/built-in.o
                0x04013c70                fit_image_check_os
 .text.fit_image_check_arch
                0x04013ca0       0x30 common/built-in.o
                0x04013ca0                fit_image_check_arch
 .text.fit_image_check_type
                0x04013cd0       0x30 common/built-in.o
                0x04013cd0                fit_image_check_type
 .text.fit_image_check_comp
                0x04013d00       0x30 common/built-in.o
                0x04013d00                fit_image_check_comp
 .text.fit_check_format
                0x04013d30       0x40 common/built-in.o
                0x04013d30                fit_check_format
 .text.fit_conf_get_node
                0x04013d70       0x68 common/built-in.o
                0x04013d70                fit_conf_get_node
 .text.fit_conf_get_prop_node
                0x04013dd8       0x2c common/built-in.o
                0x04013dd8                fit_conf_get_prop_node
 .text.fit_conf_print
                0x04013e04      0x108 common/built-in.o
                0x04013e04                fit_conf_print
 .text.fit_print_contents
                0x04013f0c      0x1dc common/built-in.o
                0x04013f0c                fit_print_contents
 .text.fit_image_select
                0x040140e8       0x6c common/built-in.o
                0x040140e8                fit_image_select
 .text.fit_get_node_from_config
                0x04014154       0x44 common/built-in.o
                0x04014154                fit_get_node_from_config
 .text.fit_image_load
                0x04014198      0x480 common/built-in.o
                0x04014198                fit_image_load
 .text.on_loadaddr
                0x04014618       0x38 common/built-in.o
 .text.image_check_hcrc
                0x04014650       0x4c common/built-in.o
                0x04014650                image_check_hcrc
 .text.image_check_dcrc
                0x0401469c       0x38 common/built-in.o
                0x0401469c                image_check_dcrc
 .text.image_multi_count
                0x040146d4       0x1c common/built-in.o
                0x040146d4                image_multi_count
 .text.image_multi_getimg
                0x040146f0       0x7c common/built-in.o
                0x040146f0                image_multi_getimg
 .text.getenv_bootm_low
                0x0401476c       0x28 common/built-in.o
                0x0401476c                getenv_bootm_low
 .text.getenv_bootm_size
                0x04014794       0x5c common/built-in.o
                0x04014794                getenv_bootm_size
 .text.getenv_bootm_mapsize
                0x040147f0       0x30 common/built-in.o
                0x040147f0                getenv_bootm_mapsize
 .text.memmove_wd
                0x04014820        0xc common/built-in.o
                0x04014820                memmove_wd
 .text.genimg_print_size
                0x0401482c       0x30 common/built-in.o
                0x0401482c                genimg_print_size
 .text.get_table_entry_name
                0x0401485c       0x2c common/built-in.o
                0x0401485c                get_table_entry_name
 .text.genimg_get_os_name
                0x04014888       0x18 common/built-in.o
                0x04014888                genimg_get_os_name
 .text.genimg_get_arch_name
                0x040148a0       0x18 common/built-in.o
                0x040148a0                genimg_get_arch_name
 .text.genimg_get_type_name
                0x040148b8       0x18 common/built-in.o
                0x040148b8                genimg_get_type_name
 .text.genimg_get_comp_name
                0x040148d0       0x18 common/built-in.o
                0x040148d0                genimg_get_comp_name
 .text.image_print_contents
                0x040148e8      0x174 common/built-in.o
                0x040148e8                image_print_contents
 .text.get_table_entry_id
                0x04014a5c       0x4c common/built-in.o
                0x04014a5c                get_table_entry_id
 .text.genimg_get_os_id
                0x04014aa8       0x18 common/built-in.o
                0x04014aa8                genimg_get_os_id
 .text.genimg_get_arch_id
                0x04014ac0       0x18 common/built-in.o
                0x04014ac0                genimg_get_arch_id
 .text.genimg_get_type_id
                0x04014ad8       0x18 common/built-in.o
                0x04014ad8                genimg_get_type_id
 .text.genimg_get_comp_id
                0x04014af0       0x18 common/built-in.o
                0x04014af0                genimg_get_comp_id
 .text.genimg_get_format
                0x04014b08       0x34 common/built-in.o
                0x04014b08                genimg_get_format
 .text.genimg_get_image
                0x04014b3c        0x4 common/built-in.o
                0x04014b3c                genimg_get_image
 .text.genimg_has_config
                0x04014b40       0x10 common/built-in.o
                0x04014b40                genimg_has_config
 .text.boot_get_ramdisk
                0x04014b50      0x344 common/built-in.o
                0x04014b50                boot_get_ramdisk
 .text.boot_ramdisk_high
                0x04014e94      0x130 common/built-in.o
                0x04014e94                boot_ramdisk_high
 .text.image_setup_linux
                0x04014fc4       0x8c common/built-in.o
                0x04014fc4                image_setup_linux
 .text.delete_char.part.0
                0x04015050       0xd4 common/built-in.o
 .text.cread_add_char
                0x04015124       0xec common/built-in.o
 .text.__show_boot_progress
                0x04015210        0x4 common/built-in.o
                0x04015210                __show_boot_progress
                0x04015210                show_boot_progress
 .text.readline_into_buffer
                0x04015214      0x9c4 common/built-in.o
                0x04015214                readline_into_buffer
 .text.readline
                0x04015bd8       0x14 common/built-in.o
                0x04015bd8                readline
 .text.run_command
                0x04015bec        0x8 common/built-in.o
                0x04015bec                run_command
 .text.run_command_list
                0x04015bf4       0x5c common/built-in.o
                0x04015bf4                run_command_list
 .text.main_loop
                0x04015c50      0x108 common/built-in.o
                0x04015c50                main_loop
 .text.do_run   0x04015d58       0x74 common/built-in.o
                0x04015d58                do_run
 .text.legacy_miiphy_read
                0x04015dcc       0x34 common/built-in.o
 .text.legacy_miiphy_write
                0x04015e00       0x28 common/built-in.o
 .text.miiphy_get_dev_by_name
                0x04015e28       0x60 common/built-in.o
                0x04015e28                miiphy_get_dev_by_name
 .text.miiphy_init
                0x04015e88       0x24 common/built-in.o
                0x04015e88                miiphy_init
 .text.mdio_alloc
                0x04015eac       0x30 common/built-in.o
                0x04015eac                mdio_alloc
 .text.miiphy_register
                0x04015edc      0x108 common/built-in.o
                0x04015edc                miiphy_register
 .text.mdio_list_devices
                0x04015fe4       0x98 common/built-in.o
                0x04015fe4                mdio_list_devices
 .text.miiphy_set_current_dev
                0x0401607c       0x40 common/built-in.o
                0x0401607c                miiphy_set_current_dev
 .text.miiphy_get_active_dev
                0x040160bc       0x54 common/built-in.o
 .text.mdio_get_current_dev
                0x04016110       0x10 common/built-in.o
                0x04016110                mdio_get_current_dev
 .text.mdio_phydev_for_ethname
                0x04016120       0x88 common/built-in.o
                0x04016120                mdio_phydev_for_ethname
 .text.miiphy_get_current_dev
                0x040161a8       0x18 common/built-in.o
                0x040161a8                miiphy_get_current_dev
 .text.miiphy_read
                0x040161c0       0x4c common/built-in.o
                0x040161c0                miiphy_read
 .text.miiphy_write
                0x0401620c       0x40 common/built-in.o
                0x0401620c                miiphy_write
 .text.miiphy_listdev
                0x0401624c       0x74 common/built-in.o
                0x0401624c                miiphy_listdev
 .text.miiphy_info
                0x040162c0       0x88 common/built-in.o
                0x040162c0                miiphy_info
 .text.miiphy_speed
                0x04016348       0x94 common/built-in.o
                0x04016348                miiphy_speed
 .text.miiphy_duplex
                0x040163dc       0x94 common/built-in.o
                0x040163dc                miiphy_duplex
 .text.miiphy_is_1000base_x
                0x04016470        0x8 common/built-in.o
                0x04016470                miiphy_is_1000base_x
 .text.hex1_bin
                0x04016478       0x40 common/built-in.o
 .text.hex2_bin
                0x040164b8       0x38 common/built-in.o
 .text.srec_decode
                0x040164f0      0x254 common/built-in.o
                0x040164f0                srec_decode
 .text.stdio_get_list
                0x04016744        0xc common/built-in.o
                0x04016744                stdio_get_list
 .text.stdio_get_by_name
                0x04016750       0x5c common/built-in.o
                0x04016750                stdio_get_by_name
 .text.stdio_clone
                0x040167ac       0x38 common/built-in.o
                0x040167ac                stdio_clone
 .text.stdio_register
                0x040167e4       0x3c common/built-in.o
                0x040167e4                stdio_register
 .text.stdio_init
                0x04016820       0x90 common/built-in.o
                0x04016820                stdio_init
 .text.usb_set_maxpacket_ep
                0x040168b0       0x70 common/built-in.o
 .text.usb_stop
                0x04016920       0x80 common/built-in.o
                0x04016920                usb_stop
 .text.usb_disable_asynch
                0x040169a0       0x20 common/built-in.o
                0x040169a0                usb_disable_asynch
 .text.usb_control_msg
                0x040169c0       0xc4 common/built-in.o
                0x040169c0                usb_control_msg
 .text.usb_get_descriptor
                0x04016a84       0x50 common/built-in.o
 .text.usb_get_string
                0x04016ad4       0x6c common/built-in.o
 .text.usb_string_sub
                0x04016b40      0x108 common/built-in.o
 .text.usb_bulk_msg
                0x04016c48       0x78 common/built-in.o
                0x04016c48                usb_bulk_msg
 .text.usb_maxpacket
                0x04016cc0       0x1c common/built-in.o
                0x04016cc0                usb_maxpacket
 .text.usb_clear_halt
                0x04016cdc       0x8c common/built-in.o
                0x04016cdc                usb_clear_halt
 .text.usb_get_configuration_no
                0x04016d68       0xbc common/built-in.o
                0x04016d68                usb_get_configuration_no
 .text.usb_set_interface
                0x04016e24       0xb0 common/built-in.o
                0x04016e24                usb_set_interface
 .text.usb_string
                0x04016ed4      0x100 common/built-in.o
                0x04016ed4                usb_string
 .text.usb_get_dev_index
                0x04016fd4       0x24 common/built-in.o
                0x04016fd4                usb_get_dev_index
 .text.usb_alloc_new_device
                0x04016ff8       0xac common/built-in.o
                0x04016ff8                usb_alloc_new_device
 .text.usb_free_device
                0x040170a4       0x48 common/built-in.o
                0x040170a4                usb_free_device
 .text.usb_alloc_device
                0x040170ec        0x8 common/built-in.o
                0x040170ec                usb_alloc_device
 .text.usb_new_device
                0x040170f4      0x624 common/built-in.o
                0x040170f4                usb_new_device
 .text.usb_init
                0x04017718      0x12c common/built-in.o
                0x04017718                usb_init
 .text.usb_set_port_feature
                0x04017844       0x4c common/built-in.o
 .text.usb_get_port_status
                0x04017890       0x4c common/built-in.o
 .text.usb_clear_port_feature
                0x040178dc       0x4c common/built-in.o
 .text.usb_hub_power_on
                0x04017928       0xb4 common/built-in.o
 .text.usb_get_hub_descriptor
                0x040179dc       0x50 common/built-in.o
 .text.usb_hub_reset_devices
                0x04017a2c        0x4 common/built-in.o
                0x04017a2c                usb_hub_reset_devices
 .text.usb_hub_reset
                0x04017a30       0x14 common/built-in.o
                0x04017a30                usb_hub_reset
 .text.hub_port_reset
                0x04017a44       0xac common/built-in.o
                0x04017a44                hub_port_reset
 .text.usb_hub_port_connect_change
                0x04017af0      0x124 common/built-in.o
                0x04017af0                usb_hub_port_connect_change
 .text.usb_hub_configure
                0x04017c14      0x2d8 common/built-in.o
 .text.usb_hub_probe
                0x04017eec       0x64 common/built-in.o
                0x04017eec                usb_hub_probe
 .text.usb_stor_irq
                0x04017f50       0x1c common/built-in.o
 .text.usb_stor_BBB_reset
                0x04017f6c       0xd0 common/built-in.o
 .text.usb_stor_CB_reset
                0x0401803c       0xcc common/built-in.o
 .text.usb_stor_BBB_clear_endpt_stall.isra.2
                0x04018108       0x40 common/built-in.o
 .text.usb_stor_BBB_transport
                0x04018148      0x260 common/built-in.o
 .text.usb_stor_CB_comdat
                0x040183a8      0x218 common/built-in.o
 .text.usb_stor_CBI_get_status.isra.4
                0x040185c0       0xcc common/built-in.o
 .text.usb_stor_CB_transport
                0x0401868c      0x228 common/built-in.o
 .text.usb_request_sense.constprop.10
                0x040188b4       0x70 common/built-in.o
 .text.usb_stor_write
                0x04018924      0x1c8 common/built-in.o
                0x04018924                usb_stor_write
 .text.usb_stor_read
                0x04018aec      0x1c8 common/built-in.o
                0x04018aec                usb_stor_read
 .text.usb_stor_get_dev
                0x04018cb4       0x28 common/built-in.o
                0x04018cb4                usb_stor_get_dev
 .text.usb_stor_info
                0x04018cdc       0x74 common/built-in.o
                0x04018cdc                usb_stor_info
 .text.usb_storage_probe
                0x04018d50      0x210 common/built-in.o
                0x04018d50                usb_storage_probe
 .text.usb_stor_get_info
                0x04018f60      0x324 common/built-in.o
                0x04018f60                usb_stor_get_info
 .text.usb_stor_scan
                0x04019284      0x1fc common/built-in.o
                0x04019284                usb_stor_scan
 .text.CYGACC_COMM_IF_GETC_TIMEOUT.isra.0
                0x04019480       0x5c common/built-in.o
 .text.xyzModem_flush
                0x040194dc       0x1c common/built-in.o
 .text.xyzModem_get_hdr
                0x040194f8      0x230 common/built-in.o
 .text.xyzModem_stream_open
                0x04019728      0x23c common/built-in.o
                0x04019728                xyzModem_stream_open
 .text.xyzModem_stream_read
                0x04019964      0x258 common/built-in.o
                0x04019964                xyzModem_stream_read
 .text.xyzModem_stream_close
                0x04019bbc       0x54 common/built-in.o
                0x04019bbc                xyzModem_stream_close
 .text.xyzModem_stream_terminate
                0x04019c10       0x94 common/built-in.o
                0x04019c10                xyzModem_stream_terminate
 .text.xyzModem_error
                0x04019ca4       0x20 common/built-in.o
                0x04019ca4                xyzModem_error
 .text.get_dev  0x04019cc4       0x70 disk/built-in.o
                0x04019cc4                get_dev
 .text.dev_print
                0x04019d34      0x204 disk/built-in.o
                0x04019d34                dev_print
 .text.init_part
                0x04019f38       0x20 disk/built-in.o
                0x04019f38                init_part
 .text.print_part
                0x04019f58       0xf4 disk/built-in.o
                0x04019f58                print_part
 .text.get_partition_info
                0x0401a04c       0x2c disk/built-in.o
                0x0401a04c                get_partition_info
 .text.get_device
                0x0401a078       0x84 disk/built-in.o
                0x0401a078                get_device
 .text.get_device_and_partition
                0x0401a0fc      0x44c disk/built-in.o
                0x0401a0fc                get_device_and_partition
 .text.test_block_type
                0x0401a548       0x84 disk/built-in.o
 .text.print_partition_extended
                0x0401a5cc      0x274 disk/built-in.o
 .text.get_partition_info_extended.constprop.2
                0x0401a840      0x2a8 disk/built-in.o
 .text.test_part_dos
                0x0401aae8       0x64 disk/built-in.o
                0x0401aae8                test_part_dos
 .text.print_part_dos
                0x0401ab4c       0x34 disk/built-in.o
                0x0401ab4c                print_part_dos
 .text.get_partition_info_dos
                0x0401ab80       0x20 disk/built-in.o
                0x0401ab80                get_partition_info_dos
 .text.fpga_no_sup
                0x0401aba0       0x4c drivers/built-in.o
 .text.fpga_get_desc
                0x0401abec       0x34 drivers/built-in.o
                0x0401abec                fpga_get_desc
 .text.fpga_dev_info
                0x0401ac20       0x94 drivers/built-in.o
 .text.fpga_validate
                0x0401acb4       0x54 drivers/built-in.o
                0x0401acb4                fpga_validate
 .text.fpga_init
                0x0401ad08       0x20 drivers/built-in.o
                0x0401ad08                fpga_init
 .text.fpga_count
                0x0401ad28       0x10 drivers/built-in.o
                0x0401ad28                fpga_count
 .text.fpga_add
                0x0401ad38       0xa0 drivers/built-in.o
                0x0401ad38                fpga_add
 .text.fpga_loadbitstream
                0x0401add8      0x274 drivers/built-in.o
                0x0401adf0                fpga_loadbitstream
 .text.fpga_fsload
                0x0401b04c       0x60 drivers/built-in.o
                0x0401b04c                fpga_fsload
 .text.fpga_load
                0x0401b0ac       0x94 drivers/built-in.o
                0x0401b0ac                fpga_load
 .text.fpga_dump
                0x0401b140       0x8c drivers/built-in.o
                0x0401b140                fpga_dump
 .text.fpga_info
                0x0401b1cc       0x74 drivers/built-in.o
                0x0401b1cc                fpga_info
 .text.xilinx_validate
                0x0401b240       0x7c drivers/built-in.o
 .text.xilinx_fsload
                0x0401b2bc       0x78 drivers/built-in.o
                0x0401b2bc                xilinx_fsload
 .text.xilinx_load
                0x0401b334       0xb4 drivers/built-in.o
                0x0401b334                xilinx_load
 .text.xilinx_dump
                0x0401b3e8       0xac drivers/built-in.o
                0x0401b3e8                xilinx_dump
 .text.xilinx_info
                0x0401b494      0x20c drivers/built-in.o
                0x0401b494                xilinx_info
 .text.zynq_dma_transfer.constprop.4
                0x0401b6a0       0x98 drivers/built-in.o
 .text.load_word
                0x0401b738       0x48 drivers/built-in.o
 .text.zynq_align_dma_buffer
                0x0401b780       0xc4 drivers/built-in.o
 .text.zynq_validate_bitstream.isra.3
                0x0401b844      0x250 drivers/built-in.o
 .text.zynq_info
                0x0401ba94        0x8 drivers/built-in.o
                0x0401ba94                zynq_info
 .text.zynq_fsload
                0x0401ba9c      0x194 drivers/built-in.o
                0x0401ba9c                zynq_fsload
 .text.zynq_load
                0x0401bc30       0xd4 drivers/built-in.o
                0x0401bc30                zynq_load
 .text.zynq_dump
                0x0401bd04        0x8 drivers/built-in.o
                0x0401bd04                zynq_dump
 .text.i2c_get_adapter
                0x0401bd0c       0x64 drivers/i2c/built-in.o
                0x0401bd0c                i2c_get_adapter
 .text.i2c_init_bus
                0x0401bd70       0x90 drivers/i2c/built-in.o
 .text.i2c_get_bus_num
                0x0401be00        0x8 drivers/i2c/built-in.o
                0x0401be00                i2c_get_bus_num
 .text.i2c_set_bus_num
                0x0401be08       0xbc drivers/i2c/built-in.o
                0x0401be08                i2c_set_bus_num
 .text.i2c_init_all
                0x0401bec4       0x14 drivers/i2c/built-in.o
                0x0401bec4                i2c_init_all
 .text.i2c_probe
                0x0401bed8       0x2c drivers/i2c/built-in.o
                0x0401bed8                i2c_probe
 .text.i2c_read
                0x0401bf04       0x4c drivers/i2c/built-in.o
                0x0401bf04                i2c_read
 .text.i2c_write
                0x0401bf50       0x4c drivers/i2c/built-in.o
                0x0401bf50                i2c_write
 .text.i2c_set_bus_speed
                0x0401bf9c       0x64 drivers/i2c/built-in.o
                0x0401bf9c                i2c_set_bus_speed
 .text.i2c_get_bus_speed
                0x0401c000       0x14 drivers/i2c/built-in.o
                0x0401c000                i2c_get_bus_speed
 .text.__i2c_init
                0x0401c014       0x14 drivers/i2c/built-in.o
                0x0401c014                __i2c_init
                0x0401c014                i2c_init
 .text.zynq_i2c_init
                0x0401c028       0x34 drivers/i2c/built-in.o
 .text.zynq_i2c_set_bus_speed
                0x0401c05c       0x18 drivers/i2c/built-in.o
 .text.zynq_i2c_wait
                0x0401c074       0x34 drivers/i2c/built-in.o
 .text.zynq_i2c_write
                0x0401c0a8      0x104 drivers/i2c/built-in.o
 .text.zynq_i2c_read
                0x0401c1ac      0x130 drivers/i2c/built-in.o
 .text.zynq_i2c_probe
                0x0401c2dc       0x68 drivers/i2c/built-in.o
 .text.mmc_set_ios
                0x0401c344        0x8 drivers/mmc/built-in.o
 .text.mmc_set_capacity
                0x0401c34c       0xac drivers/mmc/built-in.o
 .text.board_mmc_getwp
                0x0401c3f8        0x8 drivers/mmc/built-in.o
                0x0401c3f8                board_mmc_getwp
 .text.mmc_getwp
                0x0401c400       0x34 drivers/mmc/built-in.o
                0x0401c400                mmc_getwp
 .text.__board_mmc_getcd
                0x0401c434        0x8 drivers/mmc/built-in.o
                0x0401c434                __board_mmc_getcd
                0x0401c434                board_mmc_getcd
 .text.mmc_send_cmd
                0x0401c43c        0x8 drivers/mmc/built-in.o
                0x0401c43c                mmc_send_cmd
 .text.mmc_go_idle
                0x0401c444       0x4c drivers/mmc/built-in.o
 .text.mmc_send_op_cond_iter
                0x0401c490       0x7c drivers/mmc/built-in.o
 .text.mmc_send_ext_csd
                0x0401c50c       0x4c drivers/mmc/built-in.o
 .text.mmc_send_status
                0x0401c558       0xc4 drivers/mmc/built-in.o
                0x0401c558                mmc_send_status
 .text.mmc_switch.isra.1
                0x0401c61c       0x54 drivers/mmc/built-in.o
 .text.mmc_set_blocklen
                0x0401c670       0x30 drivers/mmc/built-in.o
                0x0401c670                mmc_set_blocklen
 .text.find_mmc_device
                0x0401c6a0       0x4c drivers/mmc/built-in.o
                0x0401c6a0                find_mmc_device
 .text.mmc_bread
                0x0401c6ec      0x144 drivers/mmc/built-in.o
 .text.mmc_send_op_cond
                0x0401c830       0x74 drivers/mmc/built-in.o
                0x0401c830                mmc_send_op_cond
 .text.mmc_complete_op_cond
                0x0401c8a4       0x88 drivers/mmc/built-in.o
                0x0401c8a4                mmc_complete_op_cond
 .text.mmc_switch_part
                0x0401c92c       0x4c drivers/mmc/built-in.o
                0x0401c92c                mmc_switch_part
 .text.mmc_getcd
                0x0401c978       0x34 drivers/mmc/built-in.o
                0x0401c978                mmc_getcd
 .text.mmc_set_clock
                0x0401c9ac       0x20 drivers/mmc/built-in.o
                0x0401c9ac                mmc_set_clock
 .text.mmc_startup
                0x0401c9cc      0xabc drivers/mmc/built-in.o
 .text.mmc_register
                0x0401d488       0x98 drivers/mmc/built-in.o
                0x0401d488                mmc_register
 .text.mmc_start_init
                0x0401d520      0x204 drivers/mmc/built-in.o
                0x0401d520                mmc_start_init
 .text.mmc_init
                0x0401d724       0x90 drivers/mmc/built-in.o
                0x0401d724                mmc_init
 .text.mmc_get_dev
                0x0401d7b4       0x2c drivers/mmc/built-in.o
                0x0401d7b4                mmc_get_dev
 .text.mmc_set_dsr
                0x0401d7e0        0xc drivers/mmc/built-in.o
                0x0401d7e0                mmc_set_dsr
 .text.__def_mmc_init
                0x0401d7ec        0x8 drivers/mmc/built-in.o
                0x0401d7ec                cpu_mmc_init
 .text.print_mmc_devices
                0x0401d7f4       0x68 drivers/mmc/built-in.o
                0x0401d7f4                print_mmc_devices
 .text.get_mmc_num
                0x0401d85c       0x10 drivers/mmc/built-in.o
                0x0401d85c                get_mmc_num
 .text.mmc_initialize
                0x0401d86c       0x74 drivers/mmc/built-in.o
                0x0401d86c                mmc_initialize
 .text.mmc_berase
                0x0401d8e0      0x19c drivers/mmc/built-in.o
                0x0401d8e0                mmc_berase
 .text.mmc_bwrite
                0x0401da7c      0x164 drivers/mmc/built-in.o
                0x0401da7c                mmc_bwrite
 .text.sdhci_set_ios
                0x0401dbe0      0x1d0 drivers/mmc/built-in.o
                0x0401dbe0                sdhci_set_ios
 .text.sdhci_init
                0x0401ddb0      0x198 drivers/mmc/built-in.o
                0x0401ddb0                sdhci_init
 .text.sdhci_reset
                0x0401df48       0x60 drivers/mmc/built-in.o
 .text.sdhci_send_command
                0x0401dfa8      0x3dc drivers/mmc/built-in.o
                0x0401dfa8                sdhci_send_command
 .text.add_sdhci
                0x0401e384      0x19c drivers/mmc/built-in.o
                0x0401e384                add_sdhci
 .text.zynq_sdhci_init
                0x0401e520       0x70 drivers/mmc/built-in.o
                0x0401e520                zynq_sdhci_init
 .text.spi_flash_read_write
                0x0401e590       0x84 drivers/mtd/spi/built-in.o
 .text.spi_flash_cmd_read
                0x0401e614       0x20 drivers/mtd/spi/built-in.o
                0x0401e614                spi_flash_cmd_read
 .text.spi_flash_cmd
                0x0401e634       0x2c drivers/mtd/spi/built-in.o
                0x0401e634                spi_flash_cmd
 .text.spi_flash_cmd_write
                0x0401e660       0x20 drivers/mtd/spi/built-in.o
                0x0401e660                spi_flash_cmd_write
 .text.spi_flash_dual_flash
                0x0401e680       0x5c drivers/mtd/spi/built-in.o
 .text.spi_flash_cmd_wait_ready
                0x0401e6dc       0xe8 drivers/mtd/spi/built-in.o
                0x0401e6dc                spi_flash_cmd_wait_ready
 .text.spi_flash_write_common
                0x0401e7c4       0x9c drivers/mtd/spi/built-in.o
                0x0401e7c4                spi_flash_write_common
 .text.spi_flash_bank
                0x0401e860       0x90 drivers/mtd/spi/built-in.o
 .text.spi_flash_cmd_erase_ops
                0x0401e8f0       0xe0 drivers/mtd/spi/built-in.o
                0x0401e8f0                spi_flash_cmd_erase_ops
 .text.spi_flash_cmd_write_ops
                0x0401e9d0       0xec drivers/mtd/spi/built-in.o
                0x0401e9d0                spi_flash_cmd_write_ops
 .text.spi_flash_read_common
                0x0401eabc       0x5c drivers/mtd/spi/built-in.o
                0x0401eabc                spi_flash_read_common
 .text.spi_flash_cmd_read_status
                0x0401eb18       0x2c drivers/mtd/spi/built-in.o
                0x0401eb18                spi_flash_cmd_read_status
 .text.spi_flash_cmd_write_config
                0x0401eb44       0x4c drivers/mtd/spi/built-in.o
                0x0401eb44                spi_flash_cmd_write_config
 .text.spi_flash_cmd_read_config
                0x0401eb90       0x2c drivers/mtd/spi/built-in.o
                0x0401eb90                spi_flash_cmd_read_config
 .text.spi_flash_cmd_read_ops
                0x0401ebbc      0x188 drivers/mtd/spi/built-in.o
                0x0401ebbc                spi_flash_cmd_read_ops
 .text.spi_flash_set_qeb
                0x0401ed44       0x6c drivers/mtd/spi/built-in.o
 .text.spi_flash_probe
                0x0401edb0      0x3ec drivers/mtd/spi/built-in.o
                0x0401edb0                spi_flash_probe
 .text.spi_flash_free
                0x0401f19c       0x1c drivers/mtd/spi/built-in.o
                0x0401f19c                spi_flash_free
 .text.zynq_gem_setup_mac
                0x0401f1b8       0x70 drivers/net/built-in.o
 .text.zynq_gem_halt
                0x0401f228       0x14 drivers/net/built-in.o
 .text.phy_setup_op
                0x0401f23c       0x90 drivers/net/built-in.o
 .text.zynq_gem_miiphy_write
                0x0401f2cc       0x2c drivers/net/built-in.o
 .text.zynq_gem_recv
                0x0401f2f8       0xd8 drivers/net/built-in.o
 .text.zynq_gem_send
                0x0401f3d0       0xa8 drivers/net/built-in.o
 .text.zynq_gem_miiphyread
                0x0401f478       0x24 drivers/net/built-in.o
 .text.zynq_gem_init
                0x0401f49c      0x288 drivers/net/built-in.o
 .text.zynq_gem_initialize
                0x0401f724      0x128 drivers/net/built-in.o
                0x0401f724                zynq_gem_initialize
 .text.m88e1xxx_parse_status
                0x0401f84c      0x10c drivers/net/phy/built-in.o
 .text.m88e1011s_startup
                0x0401f958       0x1c drivers/net/phy/built-in.o
 .text.m88e1118_startup
                0x0401f974       0x44 drivers/net/phy/built-in.o
 .text.m88e1145_startup
                0x0401f9b8       0x40 drivers/net/phy/built-in.o
 .text.m88e1011s_config
                0x0401f9f8       0xf8 drivers/net/phy/built-in.o
 .text.m88e1121_config
                0x0401faf0       0xcc drivers/net/phy/built-in.o
 .text.m88e1111s_config
                0x0401fbbc      0x324 drivers/net/phy/built-in.o
 .text.m88e1118_config
                0x0401fee0       0xc4 drivers/net/phy/built-in.o
 .text.m88e1145_config
                0x0401ffa4      0x10c drivers/net/phy/built-in.o
 .text.m88e1149_config
                0x040200b0       0xc4 drivers/net/phy/built-in.o
 .text.m88e1310_config
                0x04020174      0x168 drivers/net/phy/built-in.o
 .text.phy_marvell_init
                0x040202dc       0x78 drivers/net/phy/built-in.o
                0x040202dc                phy_marvell_init
 .text.genphy_shutdown
                0x04020354        0x8 drivers/net/phy/built-in.o
                0x04020354                genphy_shutdown
 .text.generic_ffs
                0x0402035c       0x50 drivers/net/phy/built-in.o
 .text.phy_device_create
                0x040203ac       0xe4 drivers/net/phy/built-in.o
 .text.get_phy_device_by_mask
                0x04020490      0x154 drivers/net/phy/built-in.o
 .text.genphy_restart_aneg
                0x040205e4       0x5c drivers/net/phy/built-in.o
                0x040205e4                genphy_restart_aneg
 .text.genphy_config_aneg
                0x04020640      0x1dc drivers/net/phy/built-in.o
                0x04020640                genphy_config_aneg
 .text.genphy_config
                0x0402081c       0xb4 drivers/net/phy/built-in.o
                0x0402081c                genphy_config
 .text.genphy_update_link
                0x040208d0      0x140 drivers/net/phy/built-in.o
                0x040208d0                genphy_update_link
 .text.genphy_parse_link
                0x04020a10      0x194 drivers/net/phy/built-in.o
                0x04020a10                genphy_parse_link
 .text.genphy_startup
                0x04020ba4       0x1c drivers/net/phy/built-in.o
                0x04020ba4                genphy_startup
 .text.phy_init
                0x04020bc0       0x10 drivers/net/phy/built-in.o
                0x04020bc0                phy_init
 .text.phy_register
                0x04020bd0       0x28 drivers/net/phy/built-in.o
                0x04020bd0                phy_register
 .text.phy_reset
                0x04020bf8       0xac drivers/net/phy/built-in.o
                0x04020bf8                phy_reset
 .text.phy_find_by_mask
                0x04020ca4       0x3c drivers/net/phy/built-in.o
                0x04020ca4                phy_find_by_mask
 .text.phy_connect_dev
                0x04020ce0       0x44 drivers/net/phy/built-in.o
                0x04020ce0                phy_connect_dev
 .text.phy_connect
                0x04020d24       0x50 drivers/net/phy/built-in.o
                0x04020d24                phy_connect
 .text.phy_startup
                0x04020d74       0x1c drivers/net/phy/built-in.o
                0x04020d74                phy_startup
 .text.__board_phy_config
                0x04020d90       0x1c drivers/net/phy/built-in.o
                0x04020d90                board_phy_config
 .text.phy_config
                0x04020dac       0x10 drivers/net/phy/built-in.o
                0x04020dac                phy_config
 .text.get_current
                0x04020dbc       0x40 drivers/serial/built-in.o
 .text.serial_null
                0x04020dfc        0x4 drivers/serial/built-in.o
                0x04020dfc                jz_serial_initialize
                0x04020dfc                bfin_serial_initialize
                0x04020dfc                p3mx_serial_initialize
                0x04020dfc                leon2_serial_initialize
                0x04020dfc                leon3_serial_initialize
                0x04020dfc                amirix_serial_initialize
                0x04020dfc                marvell_serial_initialize
                0x04020dfc                cpci750_serial_initialize
                0x04020dfc                ns16550_serial_initialize
                0x04020dfc                asc_serial_initialize
                0x04020dfc                altera_serial_initialize
                0x04020dfc                oc_serial_initialize
                0x04020dfc                sh_serial_initialize
                0x04020dfc                mxs_auart_initialize
                0x04020dfc                arm_dcc_initialize
                0x04020dfc                bmw_serial_initialize
                0x04020dfc                mcf_serial_initialize
                0x04020dfc                lh7a40x_serial_initialize
                0x04020dfc                evb64260_serial_initialize
                0x04020dfc                lpc32xx_serial_initialize
                0x04020dfc                max3100_serial_initialize
                0x04020dfc                mpc85xx_serial_initialize
                0x04020dfc                imx_serial_initialize
                0x04020dfc                ixp_serial_initialize
                0x04020dfc                bfin_jtag_initialize
                0x04020dfc                cogent_serial_initialize
                0x04020dfc                clps7111_serial_initialize
                0x04020dfc                ml2_serial_initialize
                0x04020dfc                sandbox_serial_initialize
                0x04020dfc                s3c24xx_serial_initialize
                0x04020dfc                sconsole_serial_initialize
                0x04020dfc                uartlite_serial_initialize
                0x04020dfc                au1x00_serial_initialize
                0x04020dfc                pxa_serial_initialize
                0x04020dfc                atmel_serial_initialize
                0x04020dfc                pl01x_serial_initialize
                0x04020dfc                altera_jtag_serial_initialize
                0x04020dfc                mpc512x_serial_initialize
                0x04020dfc                s5p_serial_initialize
                0x04020dfc                ks8695_serial_initialize
                0x04020dfc                sa1100_serial_initialize
                0x04020dfc                mpc8260_scc_serial_initialize
                0x04020dfc                mxc_serial_initialize
                0x04020dfc                iop480_serial_initialize
                0x04020dfc                mpc8xx_serial_initialize
                0x04020dfc                mpc8260_smc_serial_initialize
                0x04020dfc                mpc5xx_serial_initialize
 .text.serial_register
                0x04020e00       0x18 drivers/serial/built-in.o
                0x04020e00                serial_register
 .text.serial_stdio_init
                0x04020e18       0x88 drivers/serial/built-in.o
                0x04020e18                serial_stdio_init
 .text.serial_assign
                0x04020ea0       0x4c drivers/serial/built-in.o
                0x04020ea0                serial_assign
 .text.serial_initialize
                0x04020eec       0xd0 drivers/serial/built-in.o
                0x04020eec                serial_initialize
 .text.serial_init
                0x04020fbc       0x14 drivers/serial/built-in.o
                0x04020fbc                serial_init
 .text.serial_setbrg
                0x04020fd0       0x14 drivers/serial/built-in.o
                0x04020fd0                serial_setbrg
 .text.on_baudrate
                0x04020fe4       0xe4 drivers/serial/built-in.o
 .text.serial_getc
                0x040210c8       0x14 drivers/serial/built-in.o
                0x040210c8                serial_getc
 .text.serial_tstc
                0x040210dc       0x14 drivers/serial/built-in.o
                0x040210dc                serial_tstc
 .text.serial_putc
                0x040210f0       0x1c drivers/serial/built-in.o
                0x040210f0                serial_putc
 .text.serial_puts
                0x0402110c       0x1c drivers/serial/built-in.o
                0x0402110c                serial_puts
 .text.uart_zynq_serial_putc
                0x04021128       0x40 drivers/serial/built-in.o
 .text.uart_zynq0_putc
                0x04021168        0x8 drivers/serial/built-in.o
                0x04021168                uart_zynq0_putc
 .text.uart_zynq1_tstc
                0x04021170       0x18 drivers/serial/built-in.o
                0x04021170                uart_zynq1_tstc
 .text.uart_zynq1_putc
                0x04021188        0x8 drivers/serial/built-in.o
                0x04021188                uart_zynq1_putc
 .text.uart_zynq1_puts
                0x04021190       0x24 drivers/serial/built-in.o
                0x04021190                uart_zynq1_puts
 .text.uart_zynq_serial_setbrg
                0x040211b4       0xa8 drivers/serial/built-in.o
 .text.uart_zynq1_init
                0x0402125c       0x2c drivers/serial/built-in.o
                0x0402125c                uart_zynq1_init
 .text.uart_zynq0_setbrg
                0x04021288        0x8 drivers/serial/built-in.o
                0x04021288                uart_zynq0_setbrg
 .text.uart_zynq1_setbrg
                0x04021290        0x8 drivers/serial/built-in.o
                0x04021290                uart_zynq1_setbrg
 .text.uart_zynq1_getc
                0x04021298       0x20 drivers/serial/built-in.o
                0x04021298                uart_zynq1_getc
 .text.uart_zynq0_tstc
                0x040212b8       0x14 drivers/serial/built-in.o
                0x040212b8                uart_zynq0_tstc
 .text.uart_zynq0_init
                0x040212cc       0x28 drivers/serial/built-in.o
                0x040212cc                uart_zynq0_init
 .text.uart_zynq0_getc
                0x040212f4       0x1c drivers/serial/built-in.o
                0x040212f4                uart_zynq0_getc
 .text.uart_zynq0_puts
                0x04021310       0x24 drivers/serial/built-in.o
                0x04021310                uart_zynq0_puts
 .text.default_serial_console
                0x04021334        0xc drivers/serial/built-in.o
                0x04021334                default_serial_console
 .text.zynq_serial_initalize
                0x04021340       0x20 drivers/serial/built-in.o
                0x04021340                zynq_serial_initalize
 .text.spi_do_alloc_slave
                0x04021360       0x4c drivers/spi/built-in.o
                0x04021360                spi_do_alloc_slave
 .text.zynq_qspi_setup_transfer
                0x040213ac       0xa4 drivers/spi/built-in.o
 .text.zynq_qspi_fill_tx_fifo
                0x04021450      0x184 drivers/spi/built-in.o
 .text.spi_init
                0x040215d4        0x4 drivers/spi/built-in.o
                0x040215d4                spi_init
 .text.spi_setup_slave
                0x040215d8      0x1e0 drivers/spi/built-in.o
                0x040215d8                spi_setup_slave
 .text.spi_free_slave
                0x040217b8        0x4 drivers/spi/built-in.o
                0x040217b8                spi_free_slave
 .text.spi_claim_bus
                0x040217bc        0x8 drivers/spi/built-in.o
                0x040217bc                spi_claim_bus
 .text.spi_release_bus
                0x040217c4        0x4 drivers/spi/built-in.o
                0x040217c4                spi_release_bus
 .text.spi_xfer
                0x040217c8      0x390 drivers/spi/built-in.o
                0x040217c8                spi_xfer
 .text.handshake
                0x04021b58       0x50 drivers/usb/host/built-in.o
 .text.ehci_shutdown
                0x04021ba8       0xb8 drivers/usb/host/built-in.o
 .text.ehci_td_buffer
                0x04021c60       0x80 drivers/usb/host/built-in.o
 .text.ehci_submit_async
                0x04021ce0      0x5b0 drivers/usb/host/built-in.o
 .text.disable_periodic.isra.0
                0x04022290       0x48 drivers/usb/host/built-in.o
 .text.enable_periodic.isra.1
                0x040222d8       0x50 drivers/usb/host/built-in.o
 .text.__ehci_get_port_speed
                0x04022328        0x8 drivers/usb/host/built-in.o
                0x04022328                ehci_get_port_speed
                0x04022328                __ehci_get_port_speed
 .text.__ehci_set_usbmode
                0x04022330       0x20 drivers/usb/host/built-in.o
                0x04022330                __ehci_set_usbmode
                0x04022330                ehci_set_usbmode
 .text.__ehci_powerup_fixup
                0x04022350        0x8 drivers/usb/host/built-in.o
                0x04022350                ehci_powerup_fixup
                0x04022350                __ehci_powerup_fixup
 .text.ehci_get_portsc_register
                0x04022358       0x14 drivers/usb/host/built-in.o
                0x04022358                ehci_get_portsc_register
 .text.ehci_submit_root
                0x0402236c      0x4b4 drivers/usb/host/built-in.o
                0x0402236c                ehci_submit_root
 .text.usb_lowlevel_stop
                0x04022820       0x24 drivers/usb/host/built-in.o
                0x04022820                usb_lowlevel_stop
 .text.usb_lowlevel_init
                0x04022844      0x270 drivers/usb/host/built-in.o
                0x04022844                usb_lowlevel_init
 .text.submit_bulk_msg
                0x04022ab4       0x28 drivers/usb/host/built-in.o
                0x04022ab4                submit_bulk_msg
 .text.submit_control_msg
                0x04022adc       0x60 drivers/usb/host/built-in.o
                0x04022adc                submit_control_msg
 .text.create_int_queue
                0x04022b3c      0x32c drivers/usb/host/built-in.o
                0x04022b3c                create_int_queue
 .text.poll_int_queue
                0x04022e68       0x50 drivers/usb/host/built-in.o
                0x04022e68                poll_int_queue
 .text.destroy_int_queue
                0x04022eb8       0xd8 drivers/usb/host/built-in.o
                0x04022eb8                destroy_int_queue
 .text.submit_int_msg
                0x04022f90       0xe8 drivers/usb/host/built-in.o
                0x04022f90                submit_int_msg
 .text.ehci_hcd_init
                0x04023078      0x108 drivers/usb/host/built-in.o
                0x04023078                ehci_hcd_init
 .text.ehci_hcd_stop
                0x04023180       0x3c drivers/usb/host/built-in.o
                0x04023180                ehci_hcd_stop
 .text.ulpi_wakeup
                0x040231bc       0x68 drivers/usb/ulpi/built-in.o
 .text.ulpi_request.part.1
                0x04023224       0x54 drivers/usb/ulpi/built-in.o
 .text.ulpi_write
                0x04023278       0x44 drivers/usb/ulpi/built-in.o
                0x04023278                ulpi_write
 .text.ulpi_read
                0x040232bc       0x4c drivers/usb/ulpi/built-in.o
                0x040232bc                ulpi_read
 .text.ulpi_init
                0x04023308       0x90 drivers/usb/ulpi/built-in.o
                0x04023308                ulpi_init
 .text.ext2fs_crc16
                0x04023398       0x3c fs/built-in.o
                0x04023398                ext2fs_crc16
 .text.ext4fs_set_blk_dev
                0x040233d4       0x6c fs/built-in.o
                0x040233d4                ext4fs_set_blk_dev
 .text.ext4fs_devread
                0x04023440      0x25c fs/built-in.o
                0x04023440                ext4fs_devread
 .text.ext4_read_superblock
                0x0402369c       0x3c fs/built-in.o
                0x0402369c                ext4_read_superblock
 .text.ext4fs_div_roundup
                0x040236d8       0x20 fs/built-in.o
                0x040236d8                ext4fs_div_roundup
 .text.put_ext4
                0x040236f8      0x1ac fs/built-in.o
                0x040236f8                put_ext4
 .text.ext4fs_set_block_bmap
                0x040238a4       0xb0 fs/built-in.o
                0x040238a4                ext4fs_set_block_bmap
 .text.ext4fs_reset_block_bmap
                0x04023954       0x9c fs/built-in.o
                0x04023954                ext4fs_reset_block_bmap
 .text.ext4fs_set_inode_bmap
                0x040239f0       0x74 fs/built-in.o
                0x040239f0                ext4fs_set_inode_bmap
 .text.ext4fs_reset_inode_bmap
                0x04023a64       0x70 fs/built-in.o
                0x04023a64                ext4fs_reset_inode_bmap
 .text.ext4fs_checksum_update
                0x04023ad4       0x60 fs/built-in.o
                0x04023ad4                ext4fs_checksum_update
 .text.ext4fs_get_new_blk_no
                0x04023b34      0x3b0 fs/built-in.o
                0x04023b34                ext4fs_get_new_blk_no
 .text.ext4fs_get_new_inode_no
                0x04023ee4      0x380 fs/built-in.o
                0x04023ee4                ext4fs_get_new_inode_no
 .text.ext4fs_allocate_blocks
                0x04024264      0x5f4 fs/built-in.o
                0x04024264                ext4fs_allocate_blocks
 .text.ext4fs_read_inode
                0x04024858      0x130 fs/built-in.o
                0x04024858                ext4fs_read_inode
 .text.ext4fs_iget
                0x04024988       0x30 fs/built-in.o
                0x04024988                ext4fs_iget
 .text.read_allocated_block
                0x040249b8      0x92c fs/built-in.o
                0x040249b8                read_allocated_block
 .text.ext4fs_update_parent_dentry
                0x040252e4      0x39c fs/built-in.o
                0x040252e4                ext4fs_update_parent_dentry
 .text.search_dir
                0x04025680      0x130 fs/built-in.o
 .text.ext4fs_get_parent_inode_num
                0x040257b0      0x408 fs/built-in.o
                0x040257b0                ext4fs_get_parent_inode_num
 .text.ext4fs_filename_check
                0x04025bb8      0x16c fs/built-in.o
                0x04025bb8                ext4fs_filename_check
 .text.ext4fs_close
                0x04025d24      0x110 fs/built-in.o
                0x04025d24                ext4fs_close
 .text.ext4fs_iterate_dir
                0x04025e34      0x288 fs/built-in.o
                0x04025e34                ext4fs_iterate_dir
 .text.ext4fs_find_file1
                0x040260bc      0x288 fs/built-in.o
 .text.ext4fs_find_file
                0x04026344       0x78 fs/built-in.o
                0x04026344                ext4fs_find_file
 .text.ext4fs_open
                0x040263bc       0x9c fs/built-in.o
                0x040263bc                ext4fs_open
 .text.ext4fs_mount
                0x04026458       0xc4 fs/built-in.o
                0x04026458                ext4fs_mount
 .text.ext4fs_dump_metadata
                0x0402651c       0x58 fs/built-in.o
                0x0402651c                ext4fs_dump_metadata
 .text.ext4fs_free_journal
                0x04026574       0xe8 fs/built-in.o
                0x04026574                ext4fs_free_journal
 .text.ext4fs_log_gdt
                0x0402665c       0xc8 fs/built-in.o
                0x0402665c                ext4fs_log_gdt
 .text.ext4fs_log_journal
                0x04026724       0xec fs/built-in.o
                0x04026724                ext4fs_log_journal
 .text.ext4fs_put_metadata
                0x04026810       0xbc fs/built-in.o
                0x04026810                ext4fs_put_metadata
 .text.ext4fs_push_revoke_blk
                0x040268cc       0xd8 fs/built-in.o
                0x040268cc                ext4fs_push_revoke_blk
 .text.ext4fs_free_revoke_blks
                0x040269a4       0x70 fs/built-in.o
                0x040269a4                ext4fs_free_revoke_blks
 .text.check_blknr_for_revoke
                0x04026a14       0x6c fs/built-in.o
                0x04026a14                check_blknr_for_revoke
 .text.recover_transaction
                0x04026a80      0x168 fs/built-in.o
                0x04026a80                recover_transaction
 .text.print_jrnl_status
                0x04026be8       0x18 fs/built-in.o
                0x04026be8                print_jrnl_status
 .text.ext4fs_check_journal_state
                0x04026c00      0x320 fs/built-in.o
                0x04026c00                ext4fs_check_journal_state
 .text.ext4fs_init_journal
                0x04026f20      0x270 fs/built-in.o
                0x04026f20                ext4fs_init_journal
 .text.ext4fs_update_journal
                0x04027190      0x334 fs/built-in.o
                0x04027190                ext4fs_update_journal
 .text.ext4fs_update
                0x040274c4       0xf0 fs/built-in.o
 .text.ext4fs_get_bgdtable
                0x040275b4       0xd4 fs/built-in.o
                0x040275b4                ext4fs_get_bgdtable
 .text.ext4fs_deinit
                0x04027688      0x1a8 fs/built-in.o
                0x04027688                ext4fs_deinit
 .text.ext4fs_init
                0x04027830      0x2bc fs/built-in.o
                0x04027830                ext4fs_init
 .text.ext4fs_write
                0x04027aec     0x12f8 fs/built-in.o
                0x04027aec                ext4fs_write
 .text.get_fs   0x04028de4        0xc fs/built-in.o
                0x04028de4                get_fs
 .text.ext4fs_free_node
                0x04028df0       0x20 fs/built-in.o
                0x04028df0                ext4fs_free_node
 .text.ext4fs_read_file
                0x04028e10      0x240 fs/built-in.o
                0x04028e10                ext4fs_read_file
 .text.ext4fs_ls
                0x04029050       0x78 fs/built-in.o
                0x04029050                ext4fs_ls
 .text.ext4fs_read
                0x040290c8       0x40 fs/built-in.o
                0x040290c8                ext4fs_read
 .text.ext4fs_probe
                0x04029108       0x30 fs/built-in.o
                0x04029108                ext4fs_probe
 .text.ext4_read_file
                0x04029138       0x64 fs/built-in.o
                0x04029138                ext4_read_file
 .text.downcase
                0x0402919c       0x30 fs/built-in.o
 .text.disk_read
                0x040291cc       0x64 fs/built-in.o
 .text.dirdelim
                0x04029230       0x30 fs/built-in.o
 .text.get_fatent
                0x04029260      0x150 fs/built-in.o
 .text.mkcksum  0x040293b0       0x50 fs/built-in.o
 .text.check_overflow
                0x04029400       0x74 fs/built-in.o
 .text.disk_write
                0x04029474       0x84 fs/built-in.o
 .text.flush_fat_buffer
                0x040294f8       0x80 fs/built-in.o
 .text.get_fatent_value
                0x04029578      0x178 fs/built-in.o
 .text.set_fatent_value
                0x040296f0      0x100 fs/built-in.o
 .text.get_cluster
                0x040297f0      0x174 fs/built-in.o
 .text.get_name
                0x04029964       0xac fs/built-in.o
 .text.set_cluster
                0x04029a10       0xc4 fs/built-in.o
 .text.set_contents
                0x04029ad4      0x1d8 fs/built-in.o
 .text.read_bootsectandvi
                0x04029cac      0x128 fs/built-in.o
 .text.set_name
                0x04029dd4      0x13c fs/built-in.o
 .text.slot2str
                0x04029f10       0xbc fs/built-in.o
 .text.get_vfatname
                0x04029fcc      0x1ac fs/built-in.o
 .text.flush_dir_table.constprop.7
                0x0402a178       0xe0 fs/built-in.o
 .text.do_fat_write
                0x0402a258      0x8dc fs/built-in.o
 .text.fat_set_blk_dev
                0x0402ab34       0xcc fs/built-in.o
                0x0402ab34                fat_set_blk_dev
 .text.do_fat_read_at
                0x0402ac00      0xaac fs/built-in.o
                0x0402ac00                do_fat_read_at
 .text.do_fat_read
                0x0402b6ac       0x28 fs/built-in.o
                0x0402b6ac                do_fat_read
 .text.file_fat_detectfs
                0x0402b6d4      0x148 fs/built-in.o
                0x0402b6d4                file_fat_detectfs
 .text.file_fat_ls
                0x0402b81c       0x10 fs/built-in.o
                0x0402b81c                file_fat_ls
 .text.file_fat_read_at
                0x0402b82c       0x48 fs/built-in.o
                0x0402b82c                file_fat_read_at
 .text.fat_read_file
                0x0402b874       0x3c fs/built-in.o
                0x0402b874                fat_read_file
 .text.fat_close
                0x0402b8b0        0x4 fs/built-in.o
                0x0402b8b0                fat_close
 .text.file_fat_write
                0x0402b8b4       0x34 fs/built-in.o
                0x0402b8b4                file_fat_write
 .text.fs_probe_unsupported
                0x0402b8e8       0x18 fs/built-in.o
 .text.fs_ls_unsupported
                0x0402b900        0x8 fs/built-in.o
 .text.fs_read_unsupported
                0x0402b908        0x8 fs/built-in.o
 .text.fs_write_unsupported
                0x0402b910        0x8 fs/built-in.o
 .text.fs_close_unsupported
                0x0402b918        0x4 fs/built-in.o
 .text.fs_get_info
                0x0402b91c       0x34 fs/built-in.o
 .text.fs_close
                0x0402b950       0x28 fs/built-in.o
 .text.fs_set_blk_dev
                0x0402b978       0xa0 fs/built-in.o
                0x0402b978                fs_set_blk_dev
 .text.fs_ls    0x0402ba18       0x3c fs/built-in.o
                0x0402ba18                fs_ls
 .text.fs_read  0x0402ba54       0x84 fs/built-in.o
                0x0402ba54                fs_read
 .text.do_load  0x0402bad8      0x1c0 fs/built-in.o
                0x0402bad8                do_load
 .text.do_ls    0x0402bc98       0x68 fs/built-in.o
                0x0402bc98                do_ls
 .text.cyg_crc16
                0x0402bd00       0x44 lib/built-in.o
                0x0402bd00                cyg_crc16
 .text.crc32_no_comp
                0x0402bd44       0xd8 lib/built-in.o
                0x0402bd44                crc32_no_comp
 .text.crc32    0x0402be1c       0x14 lib/built-in.o
                0x0402be1c                crc32
 .text.crc32_wd
                0x0402be30        0x4 lib/built-in.o
                0x0402be30                crc32_wd
 .text.print_size
                0x0402be34      0x130 lib/built-in.o
                0x0402be34                print_size
 .text.print_buffer
                0x0402bf64      0x1b4 lib/built-in.o
                0x0402bf64                print_buffer
 .text.__div64_32
                0x0402c118       0xd4 lib/built-in.o
                0x0402c118                __div64_32
 .text.gzalloc  0x0402c1ec       0x10 lib/built-in.o
                0x0402c1ec                gzalloc
 .text.gzfree   0x0402c1fc        0x8 lib/built-in.o
                0x0402c1fc                gzfree
 .text.zunzip   0x0402c204      0x124 lib/built-in.o
                0x0402c204                zunzip
 .text.gunzip   0x0402c328       0xb8 lib/built-in.o
                0x0402c328                gunzip
 .text.hang     0x0402c3e0       0x1c lib/built-in.o
                0x0402c3e0                hang
 .text.cmpkey   0x0402c3fc       0x14 lib/built-in.o
 .text._hdelete.isra.1
                0x0402c410       0x50 lib/built-in.o
 .text.drop_var_from_set.part.2
                0x0402c460       0x50 lib/built-in.o
 .text.match_string.isra.3
                0x0402c4b0       0x60 lib/built-in.o
 .text.hcreate_r
                0x0402c510       0xb0 lib/built-in.o
                0x0402c510                hcreate_r
 .text.hdestroy_r
                0x0402c5c0       0x78 lib/built-in.o
                0x0402c5c0                hdestroy_r
 .text.hmatch_r
                0x0402c638       0xa0 lib/built-in.o
                0x0402c638                hmatch_r
 .text.hsearch_r
                0x0402c6d8      0x4bc lib/built-in.o
                0x0402c6d8                hsearch_r
 .text.hdelete_r
                0x0402cb94       0xd8 lib/built-in.o
                0x0402cb94                hdelete_r
 .text.hexport_r
                0x0402cc6c      0x314 lib/built-in.o
                0x0402cc6c                hexport_r
 .text.himport_r
                0x0402cf80      0x34c lib/built-in.o
                0x0402cf80                himport_r
 .text.hwalk_r  0x0402d2cc       0x58 lib/built-in.o
                0x0402d2cc                hwalk_r
 .text.skip_spaces
                0x0402d324       0x28 lib/built-in.o
                0x0402d324                skip_spaces
 .text.strim    0x0402d34c       0x60 lib/built-in.o
                0x0402d34c                strim
 .text.lmb_add_region
                0x0402d3ac      0x1a4 lib/built-in.o
 .text.lmb_init
                0x0402d550       0x28 lib/built-in.o
                0x0402d550                lmb_init
 .text.lmb_add  0x0402d578        0x4 lib/built-in.o
                0x0402d578                lmb_add
 .text.lmb_free
                0x0402d57c      0x104 lib/built-in.o
                0x0402d57c                lmb_free
 .text.lmb_reserve
                0x0402d680        0x8 lib/built-in.o
                0x0402d680                lmb_reserve
 .text.lmb_overlaps_region
                0x0402d688       0x58 lib/built-in.o
                0x0402d688                lmb_overlaps_region
 .text.__lmb_alloc_base
                0x0402d6e0      0x114 lib/built-in.o
                0x0402d6e0                __lmb_alloc_base
 .text.lmb_alloc_base
                0x0402d7f4       0x34 lib/built-in.o
                0x0402d7f4                lmb_alloc_base
 .text.lmb_alloc
                0x0402d828        0x8 lib/built-in.o
                0x0402d828                lmb_alloc
 .text.__board_lmb_reserve
                0x0402d830        0x4 lib/built-in.o
                0x0402d830                board_lmb_reserve
                0x0402d830                __board_lmb_reserve
 .text.byteReverse
                0x0402d834       0x34 lib/built-in.o
 .text.MD5Transform
                0x0402d868      0xa30 lib/built-in.o
 .text.MD5Update
                0x0402e298       0xe0 lib/built-in.o
 .text.MD5Final
                0x0402e378       0xc8 lib/built-in.o
 .text.md5_wd   0x0402e440       0x68 lib/built-in.o
                0x0402e440                md5_wd
 .text.string_to_ip
                0x0402e4a8       0x60 lib/built-in.o
                0x0402e4a8                string_to_ip
 .text.qsort    0x0402e508       0xe0 lib/built-in.o
                0x0402e508                qsort
 .text.strcmp_compar
                0x0402e5e8        0xc lib/built-in.o
                0x0402e5e8                strcmp_compar
 .text.sha1_process
                0x0402e5f4     0x14a8 lib/built-in.o
 .text.sha1_update.part.0
                0x0402fa9c       0xbc lib/built-in.o
 .text.sha1_starts
                0x0402fb58       0x4c lib/built-in.o
                0x0402fb58                sha1_starts
 .text.sha1_update
                0x0402fba4        0xc lib/built-in.o
                0x0402fba4                sha1_update
 .text.sha1_finish
                0x0402fbb0      0x144 lib/built-in.o
                0x0402fbb0                sha1_finish
 .text.sha1_csum_wd
                0x0402fcf4       0x40 lib/built-in.o
                0x0402fcf4                sha1_csum_wd
 .text.strcpy   0x0402fd34       0x18 lib/built-in.o
                0x0402fd34                strcpy
 .text.strncpy  0x0402fd4c       0x24 lib/built-in.o
                0x0402fd4c                strncpy
 .text.strcat   0x0402fd70       0x30 lib/built-in.o
                0x0402fd70                strcat
 .text.strncat  0x0402fda0       0x54 lib/built-in.o
                0x0402fda0                strncat
 .text.strcmp   0x0402fdf4       0x28 lib/built-in.o
                0x0402fdf4                strcmp
 .text.strncmp  0x0402fe1c       0x3c lib/built-in.o
                0x0402fe1c                strncmp
 .text.strchr   0x0402fe58       0x2c lib/built-in.o
                0x0402fe58                strchr
 .text.strlen   0x0402fe84       0x20 lib/built-in.o
                0x0402fe84                strlen
 .text.strrchr  0x0402fea4       0x3c lib/built-in.o
                0x0402fea4                strrchr
 .text.strnlen  0x0402fee0       0x2c lib/built-in.o
                0x0402fee0                strnlen
 .text.strdup   0x0402ff0c       0x40 lib/built-in.o
                0x0402ff0c                strdup
 .text.strspn   0x0402ff4c       0x3c lib/built-in.o
                0x0402ff4c                strspn
 .text.strpbrk  0x0402ff88       0x3c lib/built-in.o
                0x0402ff88                strpbrk
 .text.strtok   0x0402ffc4       0x88 lib/built-in.o
                0x0402ffc4                strtok
 .text.memset   0x0403004c       0x5c lib/built-in.o
                0x0403004c                memset
 .text.memcpy   0x040300a8       0x6c lib/built-in.o
                0x040300a8                memcpy
 .text.memmove  0x04030114       0x48 lib/built-in.o
                0x04030114                memmove
 .text.memcmp   0x0403015c       0x30 lib/built-in.o
                0x0403015c                memcmp
 .text.strstr   0x0403018c       0x6c lib/built-in.o
                0x0403018c                strstr
 .text.memchr   0x040301f8       0x30 lib/built-in.o
                0x040301f8                memchr
 .text.udelay   0x04030228       0x30 lib/built-in.o
                0x04030228                udelay
 .text.mdelay   0x04030258       0x24 lib/built-in.o
                0x04030258                mdelay
 .text.put_dec_trunc
                0x0403027c       0xd4 lib/built-in.o
 .text.put_dec  0x04030350      0x13c lib/built-in.o
 .text.string.isra.0
                0x0403048c       0x94 lib/built-in.o
 .text.number.isra.4
                0x04030520      0x250 lib/built-in.o
 .text.vsnprintf_internal.isra.6
                0x04030770      0x608 lib/built-in.o
 .text.simple_strtoul
                0x04030d78       0xb8 lib/built-in.o
                0x04030d78                simple_strtoul
 .text.strict_strtoul
                0x04030e30       0x78 lib/built-in.o
                0x04030e30                strict_strtoul
 .text.simple_strtol
                0x04030ea8       0x28 lib/built-in.o
                0x04030ea8                simple_strtol
 .text.simple_strtoull
                0x04030ed0       0xdc lib/built-in.o
                0x04030ed0                simple_strtoull
 .text.vsprintf
                0x04030fac        0x4 lib/built-in.o
                0x04030fac                vsprintf
 .text.sprintf  0x04030fb0       0x28 lib/built-in.o
                0x04030fb0                sprintf
 .text.panic    0x04030fd8       0x44 lib/built-in.o
                0x04030fd8                panic
 .text.simple_itoa
                0x0403101c       0x54 lib/built-in.o
                0x0403101c                simple_itoa
 .text.zcalloc  0x04031070        0x8 lib/built-in.o
                0x04031070                zcalloc
 .text.zcfree   0x04031078        0x8 lib/built-in.o
                0x04031078                zcfree
 .text.inflate_fast
                0x04031080      0x590 lib/built-in.o
                0x04031080                inflate_fast
 .text.inflate_table
                0x04031610      0x548 lib/built-in.o
                0x04031610                inflate_table
 .text.inflateReset
                0x04031b58       0x78 lib/built-in.o
                0x04031b58                inflateReset
 .text.inflateInit2_
                0x04031bd0      0x104 lib/built-in.o
                0x04031bd0                inflateInit2_
 .text.inflateEnd
                0x04031cd4       0x68 lib/built-in.o
                0x04031cd4                inflateEnd
 .text.adler32  0x04031d3c      0x338 lib/built-in.o
                0x04031d3c                adler32
 .text.inflate  0x04032074     0x1534 lib/built-in.o
                0x04032074                inflate
 .text.fdt_check_header
                0x040335a8       0x74 lib/libfdt/built-in.o
                0x040335a8                fdt_check_header
 .text.fdt_offset_ptr
                0x0403361c       0x4c lib/libfdt/built-in.o
                0x0403361c                fdt_offset_ptr
 .text.fdt_next_tag
                0x04033668       0xfc lib/libfdt/built-in.o
                0x04033668                fdt_next_tag
 .text._fdt_check_node_offset
                0x04033764       0x3c lib/libfdt/built-in.o
                0x04033764                _fdt_check_node_offset
 .text._fdt_check_prop_offset
                0x040337a0       0x3c lib/libfdt/built-in.o
                0x040337a0                _fdt_check_prop_offset
 .text.fdt_next_node
                0x040337dc       0xb8 lib/libfdt/built-in.o
                0x040337dc                fdt_next_node
 .text.fdt_first_subnode
                0x04033894       0x34 lib/libfdt/built-in.o
                0x04033894                fdt_first_subnode
 .text.fdt_next_subnode
                0x040338c8       0x50 lib/libfdt/built-in.o
                0x040338c8                fdt_next_subnode
 .text._fdt_find_string
                0x04033918       0x5c lib/libfdt/built-in.o
                0x04033918                _fdt_find_string
 .text.fdt_move
                0x04033974       0x44 lib/libfdt/built-in.o
                0x04033974                fdt_move
 .text._nextprop
                0x040339b8       0x5c lib/libfdt/built-in.o
 .text.fdt_string
                0x04033a14       0x14 lib/libfdt/built-in.o
                0x04033a14                fdt_string
 .text.fdt_get_mem_rsv
                0x04033a28       0x70 lib/libfdt/built-in.o
                0x04033a28                fdt_get_mem_rsv
 .text.fdt_num_mem_rsv
                0x04033a98       0x3c lib/libfdt/built-in.o
                0x04033a98                fdt_num_mem_rsv
 .text.fdt_subnode_offset_namelen
                0x04033ad4       0xd0 lib/libfdt/built-in.o
                0x04033ad4                fdt_subnode_offset_namelen
 .text.fdt_subnode_offset
                0x04033ba4       0x30 lib/libfdt/built-in.o
                0x04033ba4                fdt_subnode_offset
 .text.fdt_get_name
                0x04033bd4       0x74 lib/libfdt/built-in.o
                0x04033bd4                fdt_get_name
 .text.fdt_first_property_offset
                0x04033c48       0x20 lib/libfdt/built-in.o
                0x04033c48                fdt_first_property_offset
 .text.fdt_next_property_offset
                0x04033c68       0x20 lib/libfdt/built-in.o
                0x04033c68                fdt_next_property_offset
 .text.fdt_get_property_by_offset
                0x04033c88       0x54 lib/libfdt/built-in.o
                0x04033c88                fdt_get_property_by_offset
 .text.fdt_get_property_namelen
                0x04033cdc       0xa0 lib/libfdt/built-in.o
                0x04033cdc                fdt_get_property_namelen
 .text.fdt_get_property
                0x04033d7c       0x3c lib/libfdt/built-in.o
                0x04033d7c                fdt_get_property
 .text.fdt_getprop_namelen
                0x04033db8       0x20 lib/libfdt/built-in.o
                0x04033db8                fdt_getprop_namelen
 .text.fdt_getprop
                0x04033dd8       0x3c lib/libfdt/built-in.o
                0x04033dd8                fdt_getprop
 .text.fdt_get_alias_namelen
                0x04033e14       0x48 lib/libfdt/built-in.o
                0x04033e14                fdt_get_alias_namelen
 .text.fdt_path_offset
                0x04033e5c       0xec lib/libfdt/built-in.o
                0x04033e5c                fdt_path_offset
 .text.fdt_supernode_atdepth_offset
                0x04033f48       0xb8 lib/libfdt/built-in.o
                0x04033f48                fdt_supernode_atdepth_offset
 .text.fdt_node_depth
                0x04034000       0x28 lib/libfdt/built-in.o
                0x04034000                fdt_node_depth
 .text._fdt_blocks_misordered
                0x04034028       0x68 lib/libfdt/built-in.o
 .text._fdt_splice
                0x04034090       0x78 lib/libfdt/built-in.o
 .text._fdt_splice_mem_rsv
                0x04034108       0x58 lib/libfdt/built-in.o
 .text._fdt_splice_struct
                0x04034160       0x4c lib/libfdt/built-in.o
 .text._fdt_packblocks
                0x040341ac       0xa8 lib/libfdt/built-in.o
 .text._fdt_add_property
                0x04034254      0x12c lib/libfdt/built-in.o
 .text._fdt_rw_check_header
                0x04034380       0x60 lib/libfdt/built-in.o
 .text.fdt_add_mem_rsv
                0x040343e0       0x88 lib/libfdt/built-in.o
                0x040343e0                fdt_add_mem_rsv
 .text.fdt_del_mem_rsv
                0x04034468       0x5c lib/libfdt/built-in.o
                0x04034468                fdt_del_mem_rsv
 .text.fdt_setprop
                0x040344c4       0xcc lib/libfdt/built-in.o
                0x040344c4                fdt_setprop
 .text.fdt_delprop
                0x04034590       0x64 lib/libfdt/built-in.o
                0x04034590                fdt_delprop
 .text.fdt_add_subnode_namelen
                0x040345f4       0xf0 lib/libfdt/built-in.o
                0x040345f4                fdt_add_subnode_namelen
 .text.fdt_add_subnode
                0x040346e4       0x30 lib/libfdt/built-in.o
                0x040346e4                fdt_add_subnode
 .text.fdt_del_node
                0x04034714       0x60 lib/libfdt/built-in.o
                0x04034714                fdt_del_node
 .text.fdt_open_into
                0x04034774      0x19c lib/libfdt/built-in.o
                0x04034774                fdt_open_into
 .text.fdt_strerror
                0x04034910       0x58 lib/libfdt/built-in.o
                0x04034910                fdt_strerror
 .text._fdt_node_end_offset
                0x04034968       0x44 lib/libfdt/built-in.o
                0x04034968                _fdt_node_end_offset
 .text.ArpInit  0x040349ac       0x50 net/built-in.o
                0x040349ac                ArpInit
 .text.arp_raw_request
                0x040349fc       0xc0 net/built-in.o
                0x040349fc                arp_raw_request
 .text.ArpRequest
                0x04034abc       0x84 net/built-in.o
                0x04034abc                ArpRequest
 .text.ArpTimeoutCheck
                0x04034b40       0x80 net/built-in.o
                0x04034b40                ArpTimeoutCheck
 .text.ArpReceive
                0x04034bc0      0x1fc net/built-in.o
                0x04034bc0                ArpReceive
 .text.DhcpOptionsProcess
                0x04034dbc      0x1f8 net/built-in.o
 .text.DhcpHandler
                0x04034fb4      0x478 net/built-in.o
 .text.BootpRequest
                0x0403542c      0x248 net/built-in.o
                0x0403542c                BootpRequest
 .text.BootpTimeout
                0x04035674       0x50 net/built-in.o
 .text.DhcpRequest
                0x040356c4        0x4 net/built-in.o
                0x040356c4                DhcpRequest
 .text.__def_eth_init
                0x040356c8        0x8 net/built-in.o
                0x040356c8                cpu_eth_init
 .text.eth_save_packet
                0x040356d0       0x80 net/built-in.o
 .text.eth_current_changed
                0x04035750       0x60 net/built-in.o
 .text.eth_parse_enetaddr
                0x040357b0       0x54 net/built-in.o
                0x040357b0                eth_parse_enetaddr
 .text.eth_getenv_enetaddr
                0x04035804       0x5c net/built-in.o
                0x04035804                eth_getenv_enetaddr
 .text.eth_setenv_enetaddr
                0x04035860       0x34 net/built-in.o
                0x04035860                eth_setenv_enetaddr
 .text.eth_getenv_enetaddr_by_index
                0x04035894       0x50 net/built-in.o
                0x04035894                eth_getenv_enetaddr_by_index
 .text.eth_get_dev_by_index
                0x040358e4       0x40 net/built-in.o
                0x040358e4                eth_get_dev_by_index
 .text.eth_get_dev_index
                0x04035924       0x1c net/built-in.o
                0x04035924                eth_get_dev_index
 .text.eth_write_hwaddr
                0x04035940      0x1d8 net/built-in.o
                0x04035940                eth_write_hwaddr
 .text.eth_register
                0x04035b18       0x7c net/built-in.o
                0x04035b18                eth_register
 .text.eth_initialize
                0x04035b94      0x1d0 net/built-in.o
                0x04035b94                eth_initialize
 .text.eth_halt
                0x04035d64       0x30 net/built-in.o
                0x04035d64                eth_halt
 .text.eth_send
                0x04035d94       0x3c net/built-in.o
                0x04035d94                eth_send
 .text.eth_rx   0x04035dd0       0x24 net/built-in.o
                0x04035dd0                eth_rx
 .text.eth_receive
                0x04035df4       0xc0 net/built-in.o
                0x04035df4                eth_receive
 .text.eth_try_another
                0x04035eb4       0x84 net/built-in.o
                0x04035eb4                eth_try_another
 .text.eth_init
                0x04035f38       0xd0 net/built-in.o
                0x04035f38                eth_init
 .text.eth_set_current
                0x04036008       0xa4 net/built-in.o
                0x04036008                eth_set_current
 .text.eth_get_name
                0x040360ac       0x20 net/built-in.o
                0x040360ac                eth_get_name
 .text.startAgainTimeout
                0x040360cc       0x14 net/built-in.o
 .text.dummy_handler
                0x040360e0        0x4 net/built-in.o
 .text.net_clear_handlers
                0x040360e4       0x34 net/built-in.o
 .text.net_auto_load
                0x04036118       0x64 net/built-in.o
                0x04036118                net_auto_load
 .text.NetStartAgain
                0x0403617c      0x150 net/built-in.o
                0x0403617c                NetStartAgain
 .text.net_set_udp_handler
                0x040362cc       0x20 net/built-in.o
                0x040362cc                net_set_udp_handler
 .text.net_get_arp_handler
                0x040362ec       0x10 net/built-in.o
                0x040362ec                net_get_arp_handler
 .text.net_set_icmp_handler
                0x040362fc       0x10 net/built-in.o
                0x040362fc                net_set_icmp_handler
 .text.NetSetTimeout
                0x0403630c       0x5c net/built-in.o
                0x0403630c                NetSetTimeout
 .text.NetCksum
                0x04036368       0x30 net/built-in.o
                0x04036368                NetCksum
 .text.NetCksumOk
                0x04036398       0x20 net/built-in.o
                0x04036398                NetCksumOk
 .text.NetReceive
                0x040363b8      0x2f0 net/built-in.o
                0x040363b8                NetReceive
 .text.NetEthHdrSize
                0x040366a8       0x38 net/built-in.o
                0x040366a8                NetEthHdrSize
 .text.NetSetEther
                0x040366e0       0x94 net/built-in.o
                0x040366e0                NetSetEther
 .text.net_update_ether
                0x04036774       0x78 net/built-in.o
                0x04036774                net_update_ether
 .text.net_set_ip_header
                0x040367ec       0x88 net/built-in.o
                0x040367ec                net_set_ip_header
 .text.net_set_udp_header
                0x04036874       0x88 net/built-in.o
                0x04036874                net_set_udp_header
 .text.NetSendUDPPacket
                0x040368fc      0x108 net/built-in.o
                0x040368fc                NetSendUDPPacket
 .text.copy_filename
                0x04036a04       0x44 net/built-in.o
                0x04036a04                copy_filename
 .text.on_bootfile
                0x04036a48       0x2c net/built-in.o
 .text.ip_to_string
                0x04036a74       0x38 net/built-in.o
                0x04036a74                ip_to_string
 .text.string_to_VLAN
                0x04036aac       0x44 net/built-in.o
                0x04036aac                string_to_VLAN
 .text.getenv_VLAN
                0x04036af0       0x10 net/built-in.o
                0x04036af0                getenv_VLAN
 .text.NetInitLoop
                0x04036b00       0xf0 net/built-in.o
 .text.net_init
                0x04036bf0       0x70 net/built-in.o
                0x04036bf0                net_init
 .text.NetLoop  0x04036c60      0x394 net/built-in.o
                0x04036c60                NetLoop
 .text.rpc_lookup_reply
                0x04036ff4       0xb0 net/built-in.o
 .text.nfs_mount_reply
                0x040370a4       0xa8 net/built-in.o
 .text.nfs_umountall_reply
                0x0403714c       0x98 net/built-in.o
 .text.nfs_lookup_reply
                0x040371e4       0x98 net/built-in.o
 .text.nfs_readlink_reply
                0x0403727c       0xf8 net/built-in.o
 .text.basename
                0x04037374       0x3c net/built-in.o
 .text.rpc_add_credentials
                0x040373b0       0xb4 net/built-in.o
 .text.rpc_req  0x04037464       0xf8 net/built-in.o
 .text.nfs_mount_req
                0x0403755c       0x94 net/built-in.o
 .text.nfs_umountall_req
                0x040375f0       0x60 net/built-in.o
 .text.nfs_lookup_req
                0x04037650       0xa8 net/built-in.o
 .text.nfs_read_req
                0x040376f8       0x78 net/built-in.o
 .text.nfs_readlink_req
                0x04037770       0x58 net/built-in.o
 .text.nfs_read_reply.isra.0
                0x040377c8      0x138 net/built-in.o
 .text.NfsSend  0x04037900      0x114 net/built-in.o
 .text.NfsHandler
                0x04037a14      0x224 net/built-in.o
 .text.NfsTimeout
                0x04037c38       0x64 net/built-in.o
 .text.NfsStart
                0x04037c9c      0x254 net/built-in.o
                0x04037c9c                NfsStart
 .text.ping_timeout
                0x04037ef0       0x1c net/built-in.o
 .text.ping_start
                0x04037f0c      0x124 net/built-in.o
                0x04037f0c                ping_start
 .text.ping_receive
                0x04038030       0xe8 net/built-in.o
                0x04038030                ping_receive
 .text.tftp_complete
                0x04038118       0x78 net/built-in.o
 .text.TftpSend
                0x04038190      0x264 net/built-in.o
 .text.update_block_number
                0x040383f4       0xb4 net/built-in.o
 .text.TftpHandler
                0x040384a8      0x338 net/built-in.o
 .text.TftpTimeout
                0x040387e0       0x88 net/built-in.o
 .text.icmp_handler
                0x04038868       0x2c net/built-in.o
 .text.TftpStart
                0x04038894      0x408 net/built-in.o
                0x04038894                TftpStart
 .text.raise    0x04038c9c       0x1c /home/ugrads/p/philipsmith/ecen449/lab04/u-boot/arch/arm/lib/eabi_compat.o
                0x04038c9c                raise
 .text          0x04038cb8      0x20c /opt/coe/Xilinx/SDK/2015.2/gnu/arm/lin/bin/../lib/gcc/arm-xilinx-linux-gnueabi/4.9.1/libgcc.a(_udivsi3.o)
                0x04038cb8                __udivsi3
                0x04038cb8                __aeabi_uidiv
                0x04038ea4                __aeabi_uidivmod
 .text          0x04038ec4      0x240 /opt/coe/Xilinx/SDK/2015.2/gnu/arm/lin/bin/../lib/gcc/arm-xilinx-linux-gnueabi/4.9.1/libgcc.a(_divsi3.o)
                0x04038ec4                __aeabi_idiv
                0x04038ec4                __divsi3
                0x040390e4                __aeabi_idivmod
 .text          0x04039104       0x1c /opt/coe/Xilinx/SDK/2015.2/gnu/arm/lin/bin/../lib/gcc/arm-xilinx-linux-gnueabi/4.9.1/libgcc.a(_lshrdi3.o)
                0x04039104                __aeabi_llsr
                0x04039104                __lshrdi3
 .text          0x04039120       0x1c /opt/coe/Xilinx/SDK/2015.2/gnu/arm/lin/bin/../lib/gcc/arm-xilinx-linux-gnueabi/4.9.1/libgcc.a(_ashldi3.o)
                0x04039120                __ashldi3
                0x04039120                __aeabi_llsl
 .text          0x0403913c       0x10 /opt/coe/Xilinx/SDK/2015.2/gnu/arm/lin/bin/../lib/gcc/arm-xilinx-linux-gnueabi/4.9.1/libgcc.a(_dvmd_lnx.o)
                0x0403913c                __aeabi_ldiv0
                0x0403913c                __aeabi_idiv0

.glue_7         0x0403914c        0x0
 .glue_7        0x00000000        0x0 linker stubs

.glue_7t        0x0403914c        0x0
 .glue_7t       0x00000000        0x0 linker stubs

.vfp11_veneer   0x0403914c        0x0
 .vfp11_veneer  0x00000000        0x0 linker stubs

.v4_bx          0x0403914c        0x0
 .v4_bx         0x00000000        0x0 linker stubs

.iplt           0x0403914c        0x0
 .iplt          0x00000000        0x0 arch/arm/cpu/armv7/start.o
                0x0403914c                . = ALIGN (0x4)

.rodata         0x0403914c     0xde10
 *(SORT(.rodata*))
 .rodata        0x0403914c       0x80 arch/arm/lib/built-in.o
 .rodata.CSWTCH.26
                0x040391cc       0x14 common/built-in.o
 .rodata.CSWTCH.28
                0x040391e0       0x20 common/built-in.o
 .rodata.CSWTCH.35
                0x04039200        0xc arch/arm/cpu/armv7/zynq/built-in.o
 .rodata.baudrate_table
                0x0403920c       0x2c drivers/serial/built-in.o
 .rodata.bin_format
                0x04039238       0x34 drivers/built-in.o
 .rodata.block_drvr
                0x0403926c       0x18 disk/built-in.o
 .rodata.boot_os
                0x04039284       0x60 common/built-in.o
 .rodata.crc_table
                0x040392e4      0x400 lib/built-in.o
 .rodata.desc_and_len_tbl
                0x040396e4       0x30 common/built-in.o
 .rodata.env_flags_varaccess_mask
                0x04039714       0x10 common/built-in.o
 .rodata.ext_csd_bits.7315
                0x04039724        0xc drivers/mmc/built-in.o
 .rodata.ext_to_hostcaps.7316
                0x04039730        0xc drivers/mmc/built-in.o
 .rodata.fbase  0x0403973c       0x10 drivers/mmc/built-in.o
 .rodata.fdt_errtable
                0x0403974c       0x34 lib/libfdt/built-in.o
 .rodata.mio_periphs
                0x04039780       0x8c arch/arm/cpu/armv7/zynq/built-in.o
 .rodata.multipliers
                0x0403980c       0x40 drivers/mmc/built-in.o
 .rodata.nand16_pins
                0x0403984c       0x20 arch/arm/cpu/armv7/zynq/built-in.o
 .rodata.nand8_pins
                0x0403986c       0x34 arch/arm/cpu/armv7/zynq/built-in.o
 .rodata.offsets.8971
                0x040398a0       0x10 drivers/spi/built-in.o
 .rodata.op_table
                0x040398b0       0x68 common/built-in.o
 .rodata.qspi0_pins
                0x04039918       0x18 arch/arm/cpu/armv7/zynq/built-in.o
 .rodata.qspi1_cs_pin
                0x04039930        0x4 arch/arm/cpu/armv7/zynq/built-in.o
 .rodata.qspi1_pins
                0x04039934       0x14 arch/arm/cpu/armv7/zynq/built-in.o
 .rodata.reg_0_5_desc_tbl
                0x04039948       0x30 common/built-in.o
 .rodata.reg_0_desc_tbl
                0x04039978       0x78 common/built-in.o
 .rodata.reg_1_desc_tbl
                0x040399f0       0xc0 common/built-in.o
 .rodata.reg_2_desc_tbl
                0x04039ab0        0xc common/built-in.o
 .rodata.reg_3_desc_tbl
                0x04039abc       0x24 common/built-in.o
 .rodata.reg_4_desc_tbl
                0x04039ae0       0x90 common/built-in.o
 .rodata.reg_5_desc_tbl
                0x04039b70       0x90 common/built-in.o
 .rodata.spi_flash_params_table
                0x04039c00      0x4f8 drivers/mtd/spi/built-in.o
                0x04039c00                spi_flash_params_table
 .rodata.subcmd_list
                0x0403a0f8       0x10 common/built-in.o
 .rodata.uart_zynq_ports
                0x0403a108        0x8 drivers/serial/built-in.o
 .rodata.uart_zynq_ports_param
                0x0403a110        0x8 drivers/serial/built-in.o
 .rodata.uimage_arch
                0x0403a118      0x114 common/built-in.o
 .rodata.uimage_comp
                0x0403a22c       0x48 common/built-in.o
 .rodata.uimage_os
                0x0403a274       0x78 common/built-in.o
 .rodata.uimage_type
                0x0403a2ec       0xd8 common/built-in.o
 .rodata.usb0_pins
                0x0403a3c4       0x30 arch/arm/cpu/armv7/zynq/built-in.o
 .rodata.usb1_pins
                0x0403a3f4       0x30 arch/arm/cpu/armv7/zynq/built-in.o
 .rodata.widths.7317
                0x0403a424        0xc drivers/mmc/built-in.o
 .rodata.crc16_tab
                0x0403a430      0x200 lib/built-in.o
 .rodata.crc16_table
                0x0403a630      0x200 fs/built-in.o
 .rodata.dbase.7147
                0x0403a830       0x40 lib/built-in.o
 .rodata.dext.7148
                0x0403a870       0x40 lib/built-in.o
 .rodata.distfix
                0x0403a8b0       0x80 lib/built-in.o
 .rodata.lbase.7145
                0x0403a930       0x3e lib/built-in.o
 .rodata.lenfix
                0x0403a96e      0x800 lib/built-in.o
 .rodata.lext.7146
                0x0403b16e       0x3e lib/built-in.o
 .rodata.order.7241
                0x0403b1ac       0x26 lib/built-in.o
 .rodata        0x0403b1d2        0x3 common/built-in.o
 .rodata        0x0403b1d5       0x3f drivers/usb/host/built-in.o
 .rodata        0x0403b214        0xe net/built-in.o
 .rodata.CSWTCH.28
                0x0403b222        0x4 arch/arm/cpu/armv7/zynq/built-in.o
 .rodata.CSWTCH.66
                0x0403b226       0x16 common/built-in.o
 .rodata.__FUNCTION__.7050
                0x0403b23c        0xc drivers/built-in.o
 .rodata.__FUNCTION__.7063
                0x0403b248        0xc drivers/built-in.o
 .rodata.__FUNCTION__.7074
                0x0403b254        0xc drivers/built-in.o
 .rodata.__FUNCTION__.7164
                0x0403b260       0x17 common/built-in.o
 .rodata.__FUNCTION__.7428
                0x0403b277       0x10 common/built-in.o
 .rodata.__func__.6852
                0x0403b287       0x16 arch/arm/cpu/armv7/built-in.o
 .rodata.__func__.6977
                0x0403b29d       0x10 common/built-in.o
 .rodata.__func__.6988
                0x0403b2ad        0xb common/built-in.o
 .rodata.__func__.7019
                0x0403b2b8       0x13 drivers/built-in.o
 .rodata.__func__.7039
                0x0403b2cb        0xe drivers/built-in.o
 .rodata.__func__.7065
                0x0403b2d9        0xe drivers/built-in.o
 .rodata.__func__.7083
                0x0403b2e7        0x9 drivers/built-in.o
 .rodata.__func__.7098
                0x0403b2f0        0xc drivers/built-in.o
 .rodata.__func__.7102
                0x0403b2fc        0x8 common/built-in.o
 .rodata.__func__.7110
                0x0403b304        0xa drivers/built-in.o
 .rodata.__func__.7123
                0x0403b30e        0xa drivers/built-in.o
 .rodata.__func__.7136
                0x0403b318        0xa drivers/built-in.o
 .rodata.__func__.7148
                0x0403b322        0xf fs/built-in.o
 .rodata.__func__.7157
                0x0403b331        0xe common/built-in.o
 .rodata.__func__.7184
                0x0403b33f       0x13 fs/built-in.o
 .rodata.__func__.7191
                0x0403b352        0xe common/built-in.o
 .rodata.__func__.7193
                0x0403b360       0x14 fs/built-in.o
 .rodata.__func__.7223
                0x0403b374        0xc drivers/mmc/built-in.o
 .rodata.__func__.7254
                0x0403b380       0x14 drivers/mmc/built-in.o
 .rodata.__func__.7276
                0x0403b394       0x13 drivers/mmc/built-in.o
 .rodata.__func__.7277
                0x0403b3a7       0x11 drivers/net/phy/built-in.o
 .rodata.__func__.7296
                0x0403b3b8       0x10 drivers/mmc/built-in.o
 .rodata.__func__.7320
                0x0403b3c8        0xb drivers/mmc/built-in.o
 .rodata.__func__.7332
                0x0403b3d3        0xa drivers/mmc/built-in.o
 .rodata.__func__.7377
                0x0403b3dd        0xe api/built-in.o
 .rodata.__func__.7516
                0x0403b3eb       0x19 common/built-in.o
 .rodata.__func__.7519
                0x0403b404       0x1c fs/built-in.o
 .rodata.__func__.7806
                0x0403b420        0xf drivers/usb/host/built-in.o
 .rodata.__func__.8007
                0x0403b42f       0x12 drivers/built-in.o
 .rodata.__func__.8034
                0x0403b441       0x13 drivers/built-in.o
 .rodata.__func__.8068
                0x0403b454       0x16 drivers/built-in.o
 .rodata.__func__.8086
                0x0403b46a       0x18 drivers/built-in.o
 .rodata.__func__.8107
                0x0403b482        0xc drivers/built-in.o
 .rodata.__func__.8122
                0x0403b48e        0xa drivers/built-in.o
 .rodata.__func__.8447
                0x0403b498        0xa drivers/net/built-in.o
 .rodata.__func__.8880
                0x0403b4a2        0xe common/built-in.o
 .rodata.__func__.8955
                0x0403b4b0       0x19 drivers/spi/built-in.o
 .rodata.__func__.8988
                0x0403b4c9       0x13 drivers/spi/built-in.o
 .rodata.__func__.9064
                0x0403b4dc       0x10 drivers/spi/built-in.o
 .rodata._ctype
                0x0403b4ec      0x100 lib/built-in.o
                0x0403b4ec                _ctype
 .rodata.default_environment
                0x0403b5ec      0xb6f common/built-in.o
                0x0403b5ec                default_environment
 .rodata.delims.6856
                0x0403c15b        0x3 common/built-in.o
 .rodata.digits.6860
                0x0403c15e       0x10 lib/built-in.o
 .rodata.env_flags_varaccess_rep
                0x0403c16e        0x5 common/built-in.o
 .rodata.env_flags_vartype_rep
                0x0403c173        0x7 common/built-in.o
 .rodata.erase_seq
                0x0403c17a        0x4 common/built-in.o
 .rodata.hex_asc
                0x0403c17e       0x11 lib/built-in.o
 .rodata.names.6861
                0x0403c18f        0x6 lib/built-in.o
 .rodata.sha1_padding
                0x0403c195       0x40 lib/built-in.o
 .rodata.spi_read_cmds_array
                0x0403c1d5        0x5 drivers/mtd/spi/built-in.o
 .rodata.str1.1
                0x0403c1da       0x75 api/built-in.o
                                 0x76 (size before relaxing)
 .rodata.str1.1
                0x0403c24f       0x65 arch/arm/cpu/armv7/built-in.o
 .rodata.str1.1
                0x0403c2b4      0x1d9 arch/arm/cpu/armv7/zynq/built-in.o
                                0x1e3 (size before relaxing)
 .rodata.str1.1
                0x0403c48d      0x409 arch/arm/lib/built-in.o
                                0x42e (size before relaxing)
 .rodata.str1.1
                0x0403c896       0x57 board/xilinx/zynq/built-in.o
                                 0x58 (size before relaxing)
 .rodata.str1.1
                0x0403c8ed     0x767b common/built-in.o
                               0x7e54 (size before relaxing)
 .rodata.str1.1
                0x04043f68      0x403 disk/built-in.o
                                0x43b (size before relaxing)
 .rodata.str1.1
                0x0404436b      0x745 drivers/built-in.o
                                0x759 (size before relaxing)
 .rodata.str1.1
                0x04044ab0       0x3b drivers/i2c/built-in.o
 .rodata.str1.1
                0x04044aeb      0x314 drivers/mmc/built-in.o
                                0x36a (size before relaxing)
 .rodata.str1.1
                0x04044dff      0x2d8 drivers/mtd/spi/built-in.o
                                0x2db (size before relaxing)
 .rodata.str1.1
                0x040450d7       0x9a drivers/net/built-in.o
 .rodata.str1.1
                0x04045171      0x1ce drivers/net/phy/built-in.o
                                0x1e3 (size before relaxing)
 .rodata.str1.1
                0x0404533f       0x57 drivers/serial/built-in.o
                                 0x92 (size before relaxing)
 .rodata.str1.1
                0x04045396       0x90 drivers/spi/built-in.o
                                 0xb2 (size before relaxing)
 .rodata.str1.1
                0x04045426      0x2a9 drivers/usb/host/built-in.o
                                0x2b3 (size before relaxing)
 .rodata.str1.1
                0x040456cf      0x179 drivers/usb/ulpi/built-in.o
 .rodata.str1.1
                0x04045848      0x9b8 fs/built-in.o
                                0xa48 (size before relaxing)
 .rodata.str1.1
                0x04046200      0x44e lib/built-in.o
                                0x470 (size before relaxing)
 .rodata.str1.1
                0x0404664e       0xf1 lib/libfdt/built-in.o
                                0x11c (size before relaxing)
 .rodata.str1.1
                0x0404673f      0x7b1 net/built-in.o
                                0x92d (size before relaxing)
 .rodata.str1.1
                0x04046ef0       0x1b /home/ugrads/p/philipsmith/ecen449/lab04/u-boot/arch/arm/lib/eabi_compat.o
 .rodata.tab_seq
                0x04046f0b        0x9 common/built-in.o
 .rodata.us_direction
                0x04046f14       0x20 common/built-in.o
 .rodata.version_string
                0x04046f34       0x28 common/built-in.o
                0x04046f34                version_string

.hash           0x04046f5c       0x2c
 .hash          0x04046f5c       0x2c arch/arm/cpu/armv7/start.o
                0x04046f88                . = ALIGN (0x4)

.data           0x04046f88     0x20e4
 *(.data*)
 .data.specs    0x04046f88       0x64 api/built-in.o
 .data.slcr_lock
                0x04046fec        0x4 arch/arm/cpu/armv7/zynq/built-in.o
 .data.init_sequence
                0x04046ff0       0x2c arch/arm/lib/built-in.o
                0x04046ff0                init_sequence
 .data.fpga010  0x0404701c       0x18 board/xilinx/zynq/built-in.o
                0x0404701c                fpga010
 .data.fpga015  0x04047034       0x18 board/xilinx/zynq/built-in.o
                0x04047034                fpga015
 .data.fpga100  0x0404704c       0x18 board/xilinx/zynq/built-in.o
                0x0404704c                fpga100
 .data.fpga030  0x04047064       0x18 board/xilinx/zynq/built-in.o
                0x04047064                fpga030
 .data.fpga020  0x0404707c       0x18 board/xilinx/zynq/built-in.o
                0x0404707c                fpga020
 .data.fpga045  0x04047094       0x18 board/xilinx/zynq/built-in.o
                0x04047094                fpga045
 .data.bootm_help_text
                0x040470ac      0x4ce common/built-in.o
 .data.bootz_help_text
                0x0404757a      0x208 common/built-in.o
 *fill*         0x04047782        0x2 
 .data.cmd_bootm_sub
                0x04047784       0xfc common/built-in.o
 .data.clk_help_text
                0x04047880       0x1f common/built-in.o
 *fill*         0x0404789f        0x1 
 .data.cmd_clk_sub
                0x040478a0       0x1c common/built-in.o
 .data.tabs.7011
                0x040478bc       0x21 common/built-in.o
 .data.root.6928
                0x040478dd        0x2 common/built-in.o
 .data.fdt_help_text
                0x040478df      0x5e3 common/built-in.o
 .data.i2c_help_text
                0x04047ec2      0x334 common/built-in.o
 *fill*         0x040481f6        0x2 
 .data.cmd_i2c_sub
                0x040481f8      0x16c common/built-in.o
 .data.i2c_dp_last_length
                0x04048364        0x4 common/built-in.o
 .data.do_echo  0x04048368        0x4 common/built-in.o
 .data.dp_last_length
                0x0404836c        0x4 common/built-in.o
 .data.curr_device
                0x04048370        0x4 common/built-in.o
 .data.env_help_text
                0x04048374      0x218 common/built-in.o
 .data.env_id   0x0404858c        0x4 common/built-in.o
 .data.cmd_env_sub
                0x04048590       0xfc common/built-in.o
 .data.source_help_text
                0x0404868c       0xac common/built-in.o
 .data.cmd_spl_export_sub
                0x04048738       0x38 common/built-in.o
 .data.__compound_literal.0
                0x04048770       0x20 common/built-in.o
 .data.cmd_spl_sub
                0x04048790       0x1c common/built-in.o
 .data.usb_stor_curr_dev
                0x040487ac        0x4 common/built-in.o
 .data.imgextract_help_text
                0x040487b0       0xb2 common/built-in.o
 *fill*         0x04048862        0x2 
 .data.av_      0x04048864      0x408 common/built-in.o
 .data.sbrk_base
                0x04048c6c        0x4 common/built-in.o
 .data.trim_threshold
                0x04048c70        0x4 common/built-in.o
 .data.first_call
                0x04048c74        0x8 common/built-in.o
 .data.env_htab
                0x04048c7c       0x10 common/built-in.o
                0x04048c7c                env_htab
 .data.env_name_spec
                0x04048c8c        0x4 common/built-in.o
                0x04048c8c                env_name_spec
 .data.reserved_list
                0x04048c90       0x84 common/built-in.o
 .data.hist_cur
                0x04048d14        0x4 common/built-in.o
 .data.stdio_names
                0x04048d18        0xc common/built-in.o
                0x04048d18                stdio_names
 .data.next_desc
                0x04048d24        0x4 drivers/built-in.o
 .data.cur_dev_num
                0x04048d28        0x4 drivers/mmc/built-in.o
 .data.cmd_timeout.7275
                0x04048d2c        0x4 drivers/mmc/built-in.o
 .data.M88E1111S_driver
                0x04048d30       0x34 drivers/net/phy/built-in.o
 .data.M88E1310_driver
                0x04048d64       0x34 drivers/net/phy/built-in.o
 .data.M88E1011S_driver
                0x04048d98       0x34 drivers/net/phy/built-in.o
 .data.M88E1118_driver
                0x04048dcc       0x34 drivers/net/phy/built-in.o
 .data.M88E1518_driver
                0x04048e00       0x34 drivers/net/phy/built-in.o
 .data.M88E1145_driver
                0x04048e34       0x34 drivers/net/phy/built-in.o
 .data.M88E1149S_driver
                0x04048e68       0x34 drivers/net/phy/built-in.o
 .data.M88E1121R_driver
                0x04048e9c       0x34 drivers/net/phy/built-in.o
 .data.M88E1118R_driver
                0x04048ed0       0x34 drivers/net/phy/built-in.o
 .data.phy_drivers
                0x04048f04        0x8 drivers/net/phy/built-in.o
 .data.genphy_driver
                0x04048f0c       0x34 drivers/net/phy/built-in.o
 .data.uart_zynq_serial0_device
                0x04048f40       0x30 drivers/serial/built-in.o
                0x04048f40                uart_zynq_serial0_device
 .data.uart_zynq_serial1_device
                0x04048f70       0x30 drivers/serial/built-in.o
                0x04048f70                uart_zynq_serial1_device
 .data.descriptor
                0x04048fa0       0x38 drivers/usb/host/built-in.o
 .data.ext4fs_indir3_blkno
                0x04048fd8        0x4 fs/built-in.o
                0x04048fd8                ext4fs_indir3_blkno
 .data.ext4fs_indir1_blkno
                0x04048fdc        0x4 fs/built-in.o
                0x04048fdc                ext4fs_indir1_blkno
 .data.prev_inode_bitmap_index.7473
                0x04048fe0        0x4 fs/built-in.o
 .data.ext4fs_indir2_blkno
                0x04048fe4        0x4 fs/built-in.o
                0x04048fe4                ext4fs_indir2_blkno
 .data.prev_bg_bitmap_index.7454
                0x04048fe8        0x4 fs/built-in.o
 .data.first_node
                0x04048fec        0x4 fs/built-in.o
 .data.prev_bg_bmap_idx.7198
                0x04048ff0        0x4 fs/built-in.o
 .data.prev_bg_bmap_idx.7218
                0x04048ff4        0x4 fs/built-in.o
 .data.prev_bg_bmap_idx.7184
                0x04048ff8        0x4 fs/built-in.o
 .data.prev_bg_bmap_idx.7250
                0x04048ffc        0x4 fs/built-in.o
 .data.fstypes  0x04049000       0x48 fs/built-in.o
 .data.NetOurNativeVLAN
                0x04049048        0x2 net/built-in.o
                0x04049048                NetOurNativeVLAN
 .data.NetBcastAddr
                0x0404904a        0x6 net/built-in.o
                0x0404904a                NetBcastAddr
 .data.first_call.7043
                0x04049050        0x4 net/built-in.o
 .data.NetOurVLAN
                0x04049054        0x2 net/built-in.o
                0x04049054                NetOurVLAN
 *fill*         0x04049056        0x2 
 .data.nfs_offset
                0x04049058        0x4 net/built-in.o
 .data.TftpTimeoutCountMax
                0x0404905c        0x4 net/built-in.o
 .data.TftpBlkSizeOption
                0x04049060        0x2 net/built-in.o
 .data.TftpBlkSize
                0x04049062        0x2 net/built-in.o
 .data.TftpTimeoutMSecs
                0x04049064        0x4 net/built-in.o
 .data.TftpRRQTimeoutCountMax
                0x04049068        0x4 net/built-in.o
                0x04049068                TftpRRQTimeoutCountMax

.got            0x0404906c        0x0
 .got           0x00000000        0x0 arch/arm/cpu/armv7/start.o

.got.plt        0x0404906c        0xc
 .got.plt       0x0404906c        0xc arch/arm/cpu/armv7/start.o
                0x0404906c                _GLOBAL_OFFSET_TABLE_

.igot.plt       0x04049078        0x0
 .igot.plt      0x00000000        0x0 arch/arm/cpu/armv7/start.o
                0x04049078                . = ALIGN (0x4)
                0x04049078                . = .
                0x04049078                . = ALIGN (0x4)

.u_boot_list    0x04049078      0x87c
 *(SORT(.u_boot_list*))
 .u_boot_list_2_cmd_1
                0x04049078        0x0 common/built-in.o
 .u_boot_list_2_cmd_2_base
                0x04049078       0x1c common/built-in.o
                0x04049078                _u_boot_list_2_cmd_2_base
 .u_boot_list_2_cmd_2_bdinfo
                0x04049094       0x1c common/built-in.o
                0x04049094                _u_boot_list_2_cmd_2_bdinfo
 .u_boot_list_2_cmd_2_boot
                0x040490b0       0x1c common/built-in.o
                0x040490b0                _u_boot_list_2_cmd_2_boot
 .u_boot_list_2_cmd_2_bootd
                0x040490cc       0x1c common/built-in.o
                0x040490cc                _u_boot_list_2_cmd_2_bootd
 .u_boot_list_2_cmd_2_bootelf
                0x040490e8       0x1c common/built-in.o
                0x040490e8                _u_boot_list_2_cmd_2_bootelf
 .u_boot_list_2_cmd_2_bootm
                0x04049104       0x1c common/built-in.o
                0x04049104                _u_boot_list_2_cmd_2_bootm
 .u_boot_list_2_cmd_2_bootp
                0x04049120       0x1c common/built-in.o
                0x04049120                _u_boot_list_2_cmd_2_bootp
 .u_boot_list_2_cmd_2_bootvx
                0x0404913c       0x1c common/built-in.o
                0x0404913c                _u_boot_list_2_cmd_2_bootvx
 .u_boot_list_2_cmd_2_bootz
                0x04049158       0x1c common/built-in.o
                0x04049158                _u_boot_list_2_cmd_2_bootz
 .u_boot_list_2_cmd_2_clk
                0x04049174       0x1c common/built-in.o
                0x04049174                _u_boot_list_2_cmd_2_clk
 .u_boot_list_2_cmd_2_cmp
                0x04049190       0x1c common/built-in.o
                0x04049190                _u_boot_list_2_cmd_2_cmp
 .u_boot_list_2_cmd_2_coninfo
                0x040491ac       0x1c common/built-in.o
                0x040491ac                _u_boot_list_2_cmd_2_coninfo
 .u_boot_list_2_cmd_2_cp
                0x040491c8       0x1c common/built-in.o
                0x040491c8                _u_boot_list_2_cmd_2_cp
 .u_boot_list_2_cmd_2_crc32
                0x040491e4       0x1c common/built-in.o
                0x040491e4                _u_boot_list_2_cmd_2_crc32
 .u_boot_list_2_cmd_2_dcache
                0x04049200       0x1c common/built-in.o
                0x04049200                _u_boot_list_2_cmd_2_dcache
 .u_boot_list_2_cmd_2_dhcp
                0x0404921c       0x1c common/built-in.o
                0x0404921c                _u_boot_list_2_cmd_2_dhcp
 .u_boot_list_2_cmd_2_echo
                0x04049238       0x1c common/built-in.o
                0x04049238                _u_boot_list_2_cmd_2_echo
 .u_boot_list_2_cmd_2_editenv
                0x04049254       0x1c common/built-in.o
                0x04049254                _u_boot_list_2_cmd_2_editenv
 .u_boot_list_2_cmd_2_env
                0x04049270       0x1c common/built-in.o
                0x04049270                _u_boot_list_2_cmd_2_env
 .u_boot_list_2_cmd_2_exit
                0x0404928c       0x1c common/built-in.o
                0x0404928c                _u_boot_list_2_cmd_2_exit
 .u_boot_list_2_cmd_2_ext2load
                0x040492a8       0x1c common/built-in.o
                0x040492a8                _u_boot_list_2_cmd_2_ext2load
 .u_boot_list_2_cmd_2_ext2ls
                0x040492c4       0x1c common/built-in.o
                0x040492c4                _u_boot_list_2_cmd_2_ext2ls
 .u_boot_list_2_cmd_2_ext4load
                0x040492e0       0x1c common/built-in.o
                0x040492e0                _u_boot_list_2_cmd_2_ext4load
 .u_boot_list_2_cmd_2_ext4ls
                0x040492fc       0x1c common/built-in.o
                0x040492fc                _u_boot_list_2_cmd_2_ext4ls
 .u_boot_list_2_cmd_2_ext4write
                0x04049318       0x1c common/built-in.o
                0x04049318                _u_boot_list_2_cmd_2_ext4write
 .u_boot_list_2_cmd_2_false
                0x04049334       0x1c common/built-in.o
                0x04049334                _u_boot_list_2_cmd_2_false
 .u_boot_list_2_cmd_2_fatinfo
                0x04049350       0x1c common/built-in.o
                0x04049350                _u_boot_list_2_cmd_2_fatinfo
 .u_boot_list_2_cmd_2_fatload
                0x0404936c       0x1c common/built-in.o
                0x0404936c                _u_boot_list_2_cmd_2_fatload
 .u_boot_list_2_cmd_2_fatls
                0x04049388       0x1c common/built-in.o
                0x04049388                _u_boot_list_2_cmd_2_fatls
 .u_boot_list_2_cmd_2_fatwrite
                0x040493a4       0x1c common/built-in.o
                0x040493a4                _u_boot_list_2_cmd_2_fatwrite
 .u_boot_list_2_cmd_2_fdt
                0x040493c0       0x1c common/built-in.o
                0x040493c0                _u_boot_list_2_cmd_2_fdt
 .u_boot_list_2_cmd_2_fpga
                0x040493dc       0x1c common/built-in.o
                0x040493dc                _u_boot_list_2_cmd_2_fpga
 .u_boot_list_2_cmd_2_go
                0x040493f8       0x1c common/built-in.o
                0x040493f8                _u_boot_list_2_cmd_2_go
 .u_boot_list_2_cmd_2_help
                0x04049414       0x1c common/built-in.o
                0x04049414                _u_boot_list_2_cmd_2_help
 .u_boot_list_2_cmd_2_i2c
                0x04049430       0x1c common/built-in.o
                0x04049430                _u_boot_list_2_cmd_2_i2c
 .u_boot_list_2_cmd_2_icache
                0x0404944c       0x1c common/built-in.o
                0x0404944c                _u_boot_list_2_cmd_2_icache
 .u_boot_list_2_cmd_2_iminfo
                0x04049468       0x1c common/built-in.o
                0x04049468                _u_boot_list_2_cmd_2_iminfo
 .u_boot_list_2_cmd_2_imxtract
                0x04049484       0x1c common/built-in.o
                0x04049484                _u_boot_list_2_cmd_2_imxtract
 .u_boot_list_2_cmd_2_itest
                0x040494a0       0x1c common/built-in.o
                0x040494a0                _u_boot_list_2_cmd_2_itest
 .u_boot_list_2_cmd_2_loadb
                0x040494bc       0x1c common/built-in.o
                0x040494bc                _u_boot_list_2_cmd_2_loadb
 .u_boot_list_2_cmd_2_loads
                0x040494d8       0x1c common/built-in.o
                0x040494d8                _u_boot_list_2_cmd_2_loads
 .u_boot_list_2_cmd_2_loadx
                0x040494f4       0x1c common/built-in.o
                0x040494f4                _u_boot_list_2_cmd_2_loadx
 .u_boot_list_2_cmd_2_loady
                0x04049510       0x1c common/built-in.o
                0x04049510                _u_boot_list_2_cmd_2_loady
 .u_boot_list_2_cmd_2_loop
                0x0404952c       0x1c common/built-in.o
                0x0404952c                _u_boot_list_2_cmd_2_loop
 .u_boot_list_2_cmd_2_md
                0x04049548       0x1c common/built-in.o
                0x04049548                _u_boot_list_2_cmd_2_md
 .u_boot_list_2_cmd_2_mdio
                0x04049564       0x1c common/built-in.o
                0x04049564                _u_boot_list_2_cmd_2_mdio
 .u_boot_list_2_cmd_2_mii
                0x04049580       0x1c common/built-in.o
                0x04049580                _u_boot_list_2_cmd_2_mii
 .u_boot_list_2_cmd_2_mm
                0x0404959c       0x1c common/built-in.o
                0x0404959c                _u_boot_list_2_cmd_2_mm
 .u_boot_list_2_cmd_2_mmc
                0x040495b8       0x1c common/built-in.o
                0x040495b8                _u_boot_list_2_cmd_2_mmc
 .u_boot_list_2_cmd_2_mmcinfo
                0x040495d4       0x1c common/built-in.o
                0x040495d4                _u_boot_list_2_cmd_2_mmcinfo
 .u_boot_list_2_cmd_2_mw
                0x040495f0       0x1c common/built-in.o
                0x040495f0                _u_boot_list_2_cmd_2_mw
 .u_boot_list_2_cmd_2_nfs
                0x0404960c       0x1c common/built-in.o
                0x0404960c                _u_boot_list_2_cmd_2_nfs
 .u_boot_list_2_cmd_2_nm
                0x04049628       0x1c common/built-in.o
                0x04049628                _u_boot_list_2_cmd_2_nm
 .u_boot_list_2_cmd_2_ping
                0x04049644       0x1c common/built-in.o
                0x04049644                _u_boot_list_2_cmd_2_ping
 .u_boot_list_2_cmd_2_printenv
                0x04049660       0x1c common/built-in.o
                0x04049660                _u_boot_list_2_cmd_2_printenv
 .u_boot_list_2_cmd_2_question_mark
                0x0404967c       0x1c common/built-in.o
                0x0404967c                _u_boot_list_2_cmd_2_question_mark
 .u_boot_list_2_cmd_2_reset
                0x04049698       0x1c common/built-in.o
                0x04049698                _u_boot_list_2_cmd_2_reset
 .u_boot_list_2_cmd_2_run
                0x040496b4       0x1c common/built-in.o
                0x040496b4                _u_boot_list_2_cmd_2_run
 .u_boot_list_2_cmd_2_saveenv
                0x040496d0       0x1c common/built-in.o
                0x040496d0                _u_boot_list_2_cmd_2_saveenv
 .u_boot_list_2_cmd_2_setenv
                0x040496ec       0x1c common/built-in.o
                0x040496ec                _u_boot_list_2_cmd_2_setenv
 .u_boot_list_2_cmd_2_sf
                0x04049708       0x1c common/built-in.o
                0x04049708                _u_boot_list_2_cmd_2_sf
 .u_boot_list_2_cmd_2_showvar
                0x04049724       0x1c common/built-in.o
                0x04049724                _u_boot_list_2_cmd_2_showvar
 .u_boot_list_2_cmd_2_sleep
                0x04049740       0x1c common/built-in.o
                0x04049740                _u_boot_list_2_cmd_2_sleep
 .u_boot_list_2_cmd_2_source
                0x0404975c       0x1c common/built-in.o
                0x0404975c                _u_boot_list_2_cmd_2_source
 .u_boot_list_2_cmd_2_spl
                0x04049778       0x1c common/built-in.o
                0x04049778                _u_boot_list_2_cmd_2_spl
 .u_boot_list_2_cmd_2_sspi
                0x04049794       0x1c common/built-in.o
                0x04049794                _u_boot_list_2_cmd_2_sspi
 .u_boot_list_2_cmd_2_test
                0x040497b0       0x1c common/built-in.o
                0x040497b0                _u_boot_list_2_cmd_2_test
 .u_boot_list_2_cmd_2_tftpboot
                0x040497cc       0x1c common/built-in.o
                0x040497cc                _u_boot_list_2_cmd_2_tftpboot
 .u_boot_list_2_cmd_2_tftpput
                0x040497e8       0x1c common/built-in.o
                0x040497e8                _u_boot_list_2_cmd_2_tftpput
 .u_boot_list_2_cmd_2_true
                0x04049804       0x1c common/built-in.o
                0x04049804                _u_boot_list_2_cmd_2_true
 .u_boot_list_2_cmd_2_usb
                0x04049820       0x1c common/built-in.o
                0x04049820                _u_boot_list_2_cmd_2_usb
 .u_boot_list_2_cmd_2_usbboot
                0x0404983c       0x1c common/built-in.o
                0x0404983c                _u_boot_list_2_cmd_2_usbboot
 .u_boot_list_2_cmd_2_version
                0x04049858       0x1c common/built-in.o
                0x04049858                _u_boot_list_2_cmd_2_version
 .u_boot_list_2_cmd_3
                0x04049874        0x0 common/built-in.o
 .u_boot_list_2_env_clbk_1
                0x04049874        0x0 common/built-in.o
 .u_boot_list_2_env_clbk_2_baudrate
                0x04049874        0x8 drivers/serial/built-in.o
                0x04049874                _u_boot_list_2_env_clbk_2_baudrate
 .u_boot_list_2_env_clbk_2_bootfile
                0x0404987c        0x8 net/built-in.o
                0x0404987c                _u_boot_list_2_env_clbk_2_bootfile
 .u_boot_list_2_env_clbk_2_callbacks
                0x04049884        0x8 common/built-in.o
                0x04049884                _u_boot_list_2_env_clbk_2_callbacks
 .u_boot_list_2_env_clbk_2_console
                0x0404988c        0x8 common/built-in.o
                0x0404988c                _u_boot_list_2_env_clbk_2_console
 .u_boot_list_2_env_clbk_2_flags
                0x04049894        0x8 common/built-in.o
                0x04049894                _u_boot_list_2_env_clbk_2_flags
 .u_boot_list_2_env_clbk_2_loadaddr
                0x0404989c        0x8 common/built-in.o
                0x0404989c                _u_boot_list_2_env_clbk_2_loadaddr
 .u_boot_list_2_env_clbk_3
                0x040498a4        0x0 common/built-in.o
 .u_boot_list_2_i2c_1
                0x040498a4        0x0 common/built-in.o
 .u_boot_list_2_i2c_1
                0x040498a4        0x0 drivers/i2c/built-in.o
 .u_boot_list_2_i2c_2_zynq_0
                0x040498a4       0x28 drivers/i2c/built-in.o
                0x040498a4                _u_boot_list_2_i2c_2_zynq_0
 .u_boot_list_2_i2c_2_zynq_1
                0x040498cc       0x28 drivers/i2c/built-in.o
                0x040498cc                _u_boot_list_2_i2c_2_zynq_1
 .u_boot_list_2_i2c_3
                0x040498f4        0x0 common/built-in.o
 .u_boot_list_2_i2c_3
                0x040498f4        0x0 drivers/i2c/built-in.o
                0x040498f4                . = ALIGN (0x4)

.image_copy_end
                0x040498f4        0x0
 *(.__image_copy_end)
 .__image_copy_end
                0x040498f4        0x0 arch/arm/lib/built-in.o

.rel_dyn_start  0x040498f4        0x0
 *(.__rel_dyn_start)
 .__rel_dyn_start
                0x040498f4        0x0 arch/arm/lib/built-in.o

.rel.dyn        0x040498f4     0x81b8
 *(.rel*)
 .rel.got       0x00000000        0x0 arch/arm/cpu/armv7/start.o
 .rel.plt       0x00000000        0x0 arch/arm/cpu/armv7/start.o
 .rel.iplt      0x00000000        0x0 arch/arm/cpu/armv7/start.o
 .rel.text      0x040498f4       0x78 arch/arm/cpu/armv7/start.o
 .rel.text.syscall
                0x0404996c       0x10 arch/arm/cpu/armv7/start.o
 .rel.text.api_init
                0x0404997c       0xc0 arch/arm/cpu/armv7/start.o
 .rel.text.dev_open_net
                0x04049a3c        0x8 arch/arm/cpu/armv7/start.o
 .rel.text.dev_close_net
                0x04049a44        0x8 arch/arm/cpu/armv7/start.o
 .rel.text.dev_enum_net
                0x04049a4c        0x8 arch/arm/cpu/armv7/start.o
 .rel.text.dev_stor_type
                0x04049a54        0x8 arch/arm/cpu/armv7/start.o
 .rel.text.dev_stor_get
                0x04049a5c        0x8 arch/arm/cpu/armv7/start.o
 .rel.text.dev_stor_is_valid
                0x04049a64        0x8 arch/arm/cpu/armv7/start.o
 .rel.text.dev_stor_init
                0x04049a6c       0x18 arch/arm/cpu/armv7/start.o
 .rel.text.dev_enum_reset
                0x04049a84        0x8 arch/arm/cpu/armv7/start.o
 .rel.text.dev_enum_storage
                0x04049a8c       0x20 arch/arm/cpu/armv7/start.o
 .rel.text.dev_read_stor
                0x04049aac        0x8 arch/arm/cpu/armv7/start.o
 .rel.data.specs
                0x04049ab4        0x8 arch/arm/cpu/armv7/start.o
 .rel.text.invalidate_dcache_range
                0x04049abc       0x18 arch/arm/cpu/armv7/start.o
 .rel.text.ddr2x_get_rate
                0x04049ad4        0x8 arch/arm/cpu/armv7/start.o
 .rel.text.ddr3x_get_rate
                0x04049adc        0x8 arch/arm/cpu/armv7/start.o
 .rel.text.zynq_clk_periph_get_rate
                0x04049ae4        0x8 arch/arm/cpu/armv7/start.o
 .rel.text.zynq_clk_periph_set_rate
                0x04049aec        0x8 arch/arm/cpu/armv7/start.o
 .rel.text.zynq_clk_register_periph_clk
                0x04049af4       0x18 arch/arm/cpu/armv7/start.o
 .rel.text.zynq_clk_early_init
                0x04049b0c        0x8 arch/arm/cpu/armv7/start.o
 .rel.text.get_uart_clk
                0x04049b14       0x10 arch/arm/cpu/armv7/start.o
 .rel.text.set_cpu_clk_info
                0x04049b24      0x208 arch/arm/cpu/armv7/start.o
 .rel.text.zynq_clk_get_rate
                0x04049d2c        0x8 arch/arm/cpu/armv7/start.o
 .rel.text.zynq_clk_set_rate
                0x04049d34        0x8 arch/arm/cpu/armv7/start.o
 .rel.text.zynq_clk_get_name
                0x00000000        0x0 arch/arm/cpu/armv7/start.o
 .rel.text.soc_clk_dump
                0x04049d3c       0x18 arch/arm/cpu/armv7/start.o
 .rel.text.zynq_ddrc_init
                0x04049d54       0x10 arch/arm/cpu/armv7/start.o
 .rel.text.zynq_slcr_lock
                0x04049d64        0x8 arch/arm/cpu/armv7/start.o
 .rel.text.zynq_slcr_unlock
                0x04049d6c        0x8 arch/arm/cpu/armv7/start.o
 .rel.text.zynq_slcr_gem_clk_setup
                0x04049d74        0x8 arch/arm/cpu/armv7/start.o
 .rel.text.zynq_slcr_get_mio_pin_status
                0x04049d7c        0x8 arch/arm/cpu/armv7/start.o
 .rel.rodata.mio_periphs
                0x04049d84       0x70 arch/arm/cpu/armv7/start.o
 .rel.text.init_func_i2c
                0x04049df4       0x10 arch/arm/cpu/armv7/start.o
 .rel.text.display_banner
                0x04049e04       0x10 arch/arm/cpu/armv7/start.o
 .rel.text.init_baudrate
                0x04049e14        0x8 arch/arm/cpu/armv7/start.o
 .rel.text.board_init_f
                0x04049e1c       0x30 arch/arm/cpu/armv7/start.o
 .rel.text.board_init_r
                0x04049e4c       0x30 arch/arm/cpu/armv7/start.o
 .rel.text.boot_jump_linux
                0x04049e7c       0x28 arch/arm/cpu/armv7/start.o
 .rel.text.boot_prep_linux
                0x04049ea4       0x10 arch/arm/cpu/armv7/start.o
 .rel.text.bootz_setup
                0x04049eb4       0x10 arch/arm/cpu/armv7/start.o
 .rel.text.boot_prep_vxworks
                0x04049ec4       0x10 arch/arm/cpu/armv7/start.o
 .rel.text.__enable_caches
                0x00000000        0x0 arch/arm/cpu/armv7/start.o
 .rel.text.interrupt_init
                0x04049ed4        0x8 arch/arm/cpu/armv7/start.o
 .rel.text.bad_mode
                0x04049edc        0x8 arch/arm/cpu/armv7/start.o
 .rel.text.show_regs
                0x04049ee4       0x50 arch/arm/cpu/armv7/start.o
 .rel.text.do_undefined_instruction
                0x04049f34        0x8 arch/arm/cpu/armv7/start.o
 .rel.text.do_software_interrupt
                0x04049f3c        0x8 arch/arm/cpu/armv7/start.o
 .rel.text.do_prefetch_abort
                0x04049f44        0x8 arch/arm/cpu/armv7/start.o
 .rel.text.do_data_abort
                0x04049f4c        0x8 arch/arm/cpu/armv7/start.o
 .rel.text.do_not_used
                0x04049f54        0x8 arch/arm/cpu/armv7/start.o
 .rel.text.do_fiq
                0x04049f5c        0x8 arch/arm/cpu/armv7/start.o
 .rel.text.do_irq
                0x04049f64        0x8 arch/arm/cpu/armv7/start.o
 .rel.text.do_reset
                0x04049f6c        0x8 arch/arm/cpu/armv7/start.o
 .rel.rodata    0x04049f74      0x100 arch/arm/cpu/armv7/start.o
 .rel.data.init_sequence
                0x0404a074       0x50 arch/arm/cpu/armv7/start.o
 .rel.text.board_init
                0x0404a0c4       0x38 arch/arm/cpu/armv7/start.o
 .rel.text.board_late_init
                0x0404a0fc       0x68 arch/arm/cpu/armv7/start.o
 .rel.data.fpga010
                0x0404a164        0x8 arch/arm/cpu/armv7/start.o
 .rel.data.fpga015
                0x0404a16c        0x8 arch/arm/cpu/armv7/start.o
 .rel.data.fpga100
                0x0404a174        0x8 arch/arm/cpu/armv7/start.o
 .rel.data.fpga030
                0x0404a17c        0x8 arch/arm/cpu/armv7/start.o
 .rel.data.fpga020
                0x0404a184        0x8 arch/arm/cpu/armv7/start.o
 .rel.data.fpga045
                0x0404a18c        0x8 arch/arm/cpu/armv7/start.o
 .rel.text.print_num
                0x0404a194        0x8 arch/arm/cpu/armv7/start.o
 .rel.text.do_bdinfo
                0x0404a19c       0xb0 arch/arm/cpu/armv7/start.o
 .rel.text.do_go
                0x0404a24c       0x10 arch/arm/cpu/armv7/start.o
 .rel.text.do_bootm_standalone
                0x0404a25c       0x18 arch/arm/cpu/armv7/start.o
 .rel.text.do_bootd
                0x0404a274        0x8 arch/arm/cpu/armv7/start.o
 .rel.text.image_info
                0x0404a27c       0x58 arch/arm/cpu/armv7/start.o
 .rel.text.do_bootm_rtems
                0x0404a2d4       0x20 arch/arm/cpu/armv7/start.o
 .rel.text.do_bootm_qnxelf
                0x0404a2f4       0x20 arch/arm/cpu/armv7/start.o
 .rel.text.bootm_find_ramdisk.isra.16
                0x0404a314       0x10 arch/arm/cpu/armv7/start.o
 .rel.text.bootm_find_fdt
                0x0404a324       0x10 arch/arm/cpu/armv7/start.o
 .rel.text.do_iminfo
                0x0404a334        0x8 arch/arm/cpu/armv7/start.o
 .rel.text.do_bootm_plan9
                0x0404a33c       0x30 arch/arm/cpu/armv7/start.o
 .rel.text.do_bootm_states.isra.20.constprop.24
                0x0404a36c      0x120 arch/arm/cpu/armv7/start.o
 .rel.text.do_bootm
                0x0404a48c       0x18 arch/arm/cpu/armv7/start.o
 .rel.text.bootm_maybe_autostart
                0x0404a4a4       0x20 arch/arm/cpu/armv7/start.o
 .rel.text.do_bootvx_fdt
                0x0404a4c4       0x38 arch/arm/cpu/armv7/start.o
 .rel.text.do_bootm_vxworks
                0x0404a4fc       0x18 arch/arm/cpu/armv7/start.o
 .rel.text.do_bootz
                0x0404a514       0x10 arch/arm/cpu/armv7/start.o
 .rel.text.parse_argv
                0x0404a524       0x18 arch/arm/cpu/armv7/start.o
 .rel.text.invalidate_icache_all
                0x00000000        0x0 arch/arm/cpu/armv7/start.o
 .rel.text.do_icache
                0x0404a53c       0x18 arch/arm/cpu/armv7/start.o
 .rel.text.flush_dcache_all
                0x00000000        0x0 arch/arm/cpu/armv7/start.o
 .rel.text.do_dcache
                0x0404a554       0x18 arch/arm/cpu/armv7/start.o
 .rel.text.do_clk
                0x0404a56c        0x8 arch/arm/cpu/armv7/start.o
 .rel.text.do_coninfo
                0x0404a574       0x28 arch/arm/cpu/armv7/start.o
 .rel.text.common_diskboot
                0x0404a59c       0x38 arch/arm/cpu/armv7/start.o
 .rel.text.do_echo
                0x0404a5d4        0x8 arch/arm/cpu/armv7/start.o
 .rel.text.valid_elf_image
                0x0404a5dc       0x10 arch/arm/cpu/armv7/start.o
 .rel.text.do_bootelf
                0x0404a5ec       0x18 arch/arm/cpu/armv7/start.o
 .rel.text.do_bootvx
                0x0404a604       0xa8 arch/arm/cpu/armv7/start.o
 .rel.text.do_ext4_write
                0x0404a6ac       0x10 arch/arm/cpu/armv7/start.o
 .rel.text.do_fat_fsinfo
                0x0404a6bc       0x10 arch/arm/cpu/armv7/start.o
 .rel.text.do_fat_fswrite
                0x0404a6cc       0x18 arch/arm/cpu/armv7/start.o
 .rel.text.fdt_valid
                0x0404a6e4       0x28 arch/arm/cpu/armv7/start.o
 .rel.text.is_printable_string
                0x0404a70c        0x8 arch/arm/cpu/armv7/start.o
 .rel.text.print_data
                0x0404a714       0x58 arch/arm/cpu/armv7/start.o
 .rel.text.set_working_fdt_addr
                0x0404a76c       0x10 arch/arm/cpu/armv7/start.o
 .rel.text.do_fdt
                0x0404a77c      0x238 arch/arm/cpu/armv7/start.o
 .rel.text.do_fpga
                0x0404a9b4       0xf8 arch/arm/cpu/armv7/start.o
 .rel.text.do_help
                0x0404aaac       0x10 arch/arm/cpu/armv7/start.o
 .rel.text.do_i2c_bus_num
                0x0404aabc       0x30 arch/arm/cpu/armv7/start.o
 .rel.text.do_i2c
                0x0404aaec        0x8 arch/arm/cpu/armv7/start.o
 .rel.text.do_i2c_mw
                0x0404aaf4        0x8 arch/arm/cpu/armv7/start.o
 .rel.text.do_i2c_read
                0x0404aafc        0x8 arch/arm/cpu/armv7/start.o
 .rel.text.do_i2c_probe
                0x0404ab04       0x10 arch/arm/cpu/armv7/start.o
 .rel.text.do_i2c_md
                0x0404ab14       0x50 arch/arm/cpu/armv7/start.o
 .rel.text.do_i2c_crc
                0x0404ab64       0x18 arch/arm/cpu/armv7/start.o
 .rel.text.do_i2c_show_bus
                0x0404ab7c       0x28 arch/arm/cpu/armv7/start.o
 .rel.text.do_i2c_bus_speed
                0x0404aba4       0x18 arch/arm/cpu/armv7/start.o
 .rel.text.do_i2c_write
                0x0404abbc        0x8 arch/arm/cpu/armv7/start.o
 .rel.text.do_i2c_loop
                0x0404abc4        0x8 arch/arm/cpu/armv7/start.o
 .rel.text.mod_i2c_mem.isra.4
                0x0404abcc       0x58 arch/arm/cpu/armv7/start.o
 .rel.text.binary_test
                0x0404ac24       0x70 arch/arm/cpu/armv7/start.o
 .rel.text.do_itest
                0x0404ac94       0x40 arch/arm/cpu/armv7/start.o
 .rel.text.bin_data_init
                0x0404acd4       0x18 arch/arm/cpu/armv7/start.o
 .rel.text.k_data_save
                0x0404acec       0x30 arch/arm/cpu/armv7/start.o
 .rel.text.k_data_restore
                0x0404ad1c       0x30 arch/arm/cpu/armv7/start.o
 .rel.text.load_serial_ymodem
                0x0404ad4c       0x20 arch/arm/cpu/armv7/start.o
 .rel.text.bin_data_char
                0x0404ad6c       0x10 arch/arm/cpu/armv7/start.o
 .rel.text.chk1.constprop.1
                0x0404ad7c        0x8 arch/arm/cpu/armv7/start.o
 .rel.text.s1_sendpacket.constprop.2
                0x0404ad84       0x18 arch/arm/cpu/armv7/start.o
 .rel.text.load_serial
                0x0404ad9c       0x68 arch/arm/cpu/armv7/start.o
 .rel.text.do_load_serial
                0x0404ae04       0x30 arch/arm/cpu/armv7/start.o
 .rel.text.do_load_serial_bin
                0x0404ae34       0xe8 arch/arm/cpu/armv7/start.o
 .rel.text.do_mdio
                0x0404af1c       0x70 arch/arm/cpu/armv7/start.o
 .rel.text.do_mem_mw
                0x0404af8c        0x8 arch/arm/cpu/armv7/start.o
 .rel.text.do_mem_md
                0x0404af94       0x20 arch/arm/cpu/armv7/start.o
 .rel.text.do_mem_cmp
                0x0404afb4       0x30 arch/arm/cpu/armv7/start.o
 .rel.text.do_mem_base
                0x0404afe4       0x10 arch/arm/cpu/armv7/start.o
 .rel.text.do_mem_cp
                0x0404aff4       0x10 arch/arm/cpu/armv7/start.o
 .rel.text.do_mem_crc
                0x0404b004        0x8 arch/arm/cpu/armv7/start.o
 .rel.text.mod_mem.isra.2
                0x0404b00c       0x48 arch/arm/cpu/armv7/start.o
 .rel.text.do_mii
                0x0404b054      0x130 arch/arm/cpu/armv7/start.o
 .rel.text.do_mmcops
                0x0404b184       0xc0 arch/arm/cpu/armv7/start.o
 .rel.text.do_mmcinfo
                0x0404b244       0x90 arch/arm/cpu/armv7/start.o
 .rel.text.netboot_common
                0x0404b2d4       0xd0 arch/arm/cpu/armv7/start.o
 .rel.text.do_ping
                0x0404b3a4       0x18 arch/arm/cpu/armv7/start.o
 .rel.text.do_env_delete
                0x0404b3bc       0x10 arch/arm/cpu/armv7/start.o
 .rel.text.do_env_save
                0x0404b3cc       0x10 arch/arm/cpu/armv7/start.o
 .rel.text.do_env
                0x0404b3dc        0x8 arch/arm/cpu/armv7/start.o
 .rel.text.env_print
                0x0404b3e4       0x18 arch/arm/cpu/armv7/start.o
 .rel.text.do_env_print
                0x0404b3fc       0x10 arch/arm/cpu/armv7/start.o
 .rel.text.do_env_import
                0x0404b40c       0x50 arch/arm/cpu/armv7/start.o
 .rel.text.do_env_default
                0x0404b45c        0x8 arch/arm/cpu/armv7/start.o
 .rel.text._do_env_set.isra.0
                0x0404b464       0x30 arch/arm/cpu/armv7/start.o
 .rel.text.get_env_id
                0x0404b494        0x8 arch/arm/cpu/armv7/start.o
 .rel.text.setenv
                0x0404b49c        0x8 arch/arm/cpu/armv7/start.o
 .rel.text.setenv_hex
                0x0404b4a4        0x8 arch/arm/cpu/armv7/start.o
 .rel.text.do_env_export
                0x0404b4ac       0x40 arch/arm/cpu/armv7/start.o
 .rel.text.getenv_f
                0x0404b4ec        0x8 arch/arm/cpu/armv7/start.o
 .rel.text.getenv
                0x0404b4f4        0x8 arch/arm/cpu/armv7/start.o
 .rel.text.do_env_edit
                0x0404b4fc       0x10 arch/arm/cpu/armv7/start.o
 .rel.text.do_spi_flash
                0x0404b50c       0xa8 arch/arm/cpu/armv7/start.o
 .rel.text.source
                0x0404b5b4       0x68 arch/arm/cpu/armv7/start.o
 .rel.text.do_source
                0x0404b61c       0x10 arch/arm/cpu/armv7/start.o
 .rel.text.do_spi
                0x0404b62c       0x60 arch/arm/cpu/armv7/start.o
 .rel.text.do_spl
                0x0404b68c       0x48 arch/arm/cpu/armv7/start.o
 .rel.text.do_test
                0x0404b6d4       0x78 arch/arm/cpu/armv7/start.o
 .rel.text.usb_get_class_desc
                0x0404b74c       0x50 arch/arm/cpu/armv7/start.o
 .rel.text.usb_display_class_sub
                0x0404b79c       0xc8 arch/arm/cpu/armv7/start.o
 .rel.text.usb_show_tree_graph
                0x0404b864       0x48 arch/arm/cpu/armv7/start.o
 .rel.text.usb_display_string
                0x0404b8ac        0x8 arch/arm/cpu/armv7/start.o
 .rel.text.usb_display_config
                0x0404b8b4       0xa8 arch/arm/cpu/armv7/start.o
 .rel.text.do_usbboot
                0x0404b95c        0x8 arch/arm/cpu/armv7/start.o
 .rel.text.usb_display_desc.part.1
                0x0404b964       0x38 arch/arm/cpu/armv7/start.o
 .rel.text.do_usb
                0x0404b99c      0x160 arch/arm/cpu/armv7/start.o
 .rel.text.do_version
                0x0404bafc       0x20 arch/arm/cpu/armv7/start.o
 .rel.text.do_imgextract
                0x0404bb1c       0xc8 arch/arm/cpu/armv7/start.o
 .rel.text.find_cmd
                0x0404bbe4       0x10 arch/arm/cpu/armv7/start.o
 .rel.text.cmd_usage
                0x0404bbf4       0x18 arch/arm/cpu/armv7/start.o
 .rel.text._do_help
                0x0404bc0c       0x10 arch/arm/cpu/armv7/start.o
 .rel.text.var_complete
                0x0404bc1c       0x10 arch/arm/cpu/armv7/start.o
 .rel.text.cmd_auto_complete
                0x0404bc2c       0x48 arch/arm/cpu/armv7/start.o
 .rel.text.cmd_get_data_size
                0x0404bc74        0x8 arch/arm/cpu/armv7/start.o
 .rel.text.cmd_process
                0x0404bc7c       0x18 arch/arm/cpu/armv7/start.o
 .rel.text.console_setfile
                0x0404bc94       0x10 arch/arm/cpu/armv7/start.o
 .rel.text.fgetc
                0x0404bca4        0x8 arch/arm/cpu/armv7/start.o
 .rel.text.ftstc
                0x0404bcac        0x8 arch/arm/cpu/armv7/start.o
 .rel.text.fputc
                0x00000000        0x0 arch/arm/cpu/armv7/start.o
 .rel.text.fputs
                0x00000000        0x0 arch/arm/cpu/armv7/start.o
 .rel.text.putc
                0x0404bcb4        0x8 arch/arm/cpu/armv7/start.o
 .rel.text.puts
                0x0404bcbc        0x8 arch/arm/cpu/armv7/start.o
 .rel.text.ctrlc
                0x0404bcc4       0x10 arch/arm/cpu/armv7/start.o
 .rel.text.disable_ctrlc
                0x00000000        0x0 arch/arm/cpu/armv7/start.o
 .rel.text.had_ctrlc
                0x0404bcd4        0x8 arch/arm/cpu/armv7/start.o
 .rel.text.clear_ctrlc
                0x0404bcdc        0x8 arch/arm/cpu/armv7/start.o
 .rel.text.on_console
                0x0404bce4       0x20 arch/arm/cpu/armv7/start.o
 .rel.text.stdio_print_current_devices
                0x0404bd04       0x40 arch/arm/cpu/armv7/start.o
 .rel.text.console_init_r
                0x0404bd44       0x10 arch/arm/cpu/armv7/start.o
 .rel.text.sbrk
                0x0404bd54       0x18 arch/arm/cpu/armv7/start.o
 .rel.text.mem_malloc_init
                0x0404bd6c       0x18 arch/arm/cpu/armv7/start.o
 .rel.text.malloc_trim
                0x0404bd84       0x18 arch/arm/cpu/armv7/start.o
 .rel.text.free
                0x0404bd9c       0x18 arch/arm/cpu/armv7/start.o
 .rel.text.malloc
                0x0404bdb4       0x40 arch/arm/cpu/armv7/start.o
 .rel.text.calloc
                0x0404bdf4        0x8 arch/arm/cpu/armv7/start.o
 .rel.text.realloc
                0x0404bdfc        0x8 arch/arm/cpu/armv7/start.o
 .rel.text.mallopt
                0x00000000        0x0 arch/arm/cpu/armv7/start.o
 .rel.text.env_attr_lookup
                0x0404be04        0x8 arch/arm/cpu/armv7/start.o
 .rel.text.find_env_callback
                0x0404be0c       0x10 arch/arm/cpu/armv7/start.o
 .rel.text.on_callbacks
                0x0404be1c       0x20 arch/arm/cpu/armv7/start.o
 .rel.text.set_callback
                0x0404be3c        0x8 arch/arm/cpu/armv7/start.o
 .rel.text.env_callback_init
                0x0404be44       0x20 arch/arm/cpu/armv7/start.o
 .rel.text.env_get_addr
                0x0404be64        0x8 arch/arm/cpu/armv7/start.o
 .rel.text.env_get_char
                0x0404be6c        0x8 arch/arm/cpu/armv7/start.o
 .rel.text.set_default_env
                0x0404be74       0x40 arch/arm/cpu/armv7/start.o
 .rel.text.set_default_vars
                0x0404beb4       0x10 arch/arm/cpu/armv7/start.o
 .rel.text.env_import
                0x0404bec4       0x38 arch/arm/cpu/armv7/start.o
 .rel.text.env_relocate
                0x0404befc        0x8 arch/arm/cpu/armv7/start.o
 .rel.text.env_complete
                0x0404bf04       0x18 arch/arm/cpu/armv7/start.o
 .rel.text.skip_num
                0x0404bf1c        0x8 arch/arm/cpu/armv7/start.o
 .rel.text.on_flags
                0x0404bf24       0x20 arch/arm/cpu/armv7/start.o
 .rel.text.env_flags_parse_vartype
                0x0404bf44       0x10 arch/arm/cpu/armv7/start.o
 .rel.text.env_flags_parse_varaccess
                0x0404bf54       0x10 arch/arm/cpu/armv7/start.o
 .rel.text.set_flags
                0x0404bf64       0x10 arch/arm/cpu/armv7/start.o
 .rel.text.env_flags_init
                0x0404bf74       0x30 arch/arm/cpu/armv7/start.o
 .rel.text.env_flags_validate
                0x0404bfa4       0x68 arch/arm/cpu/armv7/start.o
 .rel.text.saveenv
                0x0404c00c       0x50 arch/arm/cpu/armv7/start.o
 .rel.text.env_relocate_spec
                0x0404c05c       0x18 arch/arm/cpu/armv7/start.o
 .rel.text.env_init
                0x0404c074        0x8 arch/arm/cpu/armv7/start.o
 .rel.text.jumptable_init
                0x0404c07c       0xd8 arch/arm/cpu/armv7/start.o
 .rel.text.of_bus_default_count_cells
                0x00000000        0x0 arch/arm/cpu/armv7/start.o
 .rel.text.fdt_initrd
                0x0404c154       0x38 arch/arm/cpu/armv7/start.o
 .rel.text.fdt_chosen
                0x0404c18c       0x30 arch/arm/cpu/armv7/start.o
 .rel.text.do_fixup_by_path
                0x0404c1bc        0x8 arch/arm/cpu/armv7/start.o
 .rel.text.fdt_fixup_memory_banks
                0x0404c1c4       0x58 arch/arm/cpu/armv7/start.o
 .rel.text.fdt_fixup_ethernet
                0x0404c21c       0x30 arch/arm/cpu/armv7/start.o
 .rel.text.fdt_del_node_and_alias
                0x00000000        0x0 arch/arm/cpu/armv7/start.o
 .rel.text.fdt_translate_address
                0x00000000        0x0 arch/arm/cpu/armv7/start.o
 .rel.text.fdt_node_offset_by_compat_reg
                0x00000000        0x0 arch/arm/cpu/armv7/start.o
 .rel.text.fdt_set_phandle
                0x00000000        0x0 arch/arm/cpu/armv7/start.o
 .rel.text.fdt_create_phandle
                0x00000000        0x0 arch/arm/cpu/armv7/start.o
 .rel.text.fdt_set_node_status
                0x00000000        0x0 arch/arm/cpu/armv7/start.o
 .rel.text.fdt_verify_alias_address
                0x00000000        0x0 arch/arm/cpu/armv7/start.o
 .rel.text.fdt_get_base_address
                0x00000000        0x0 arch/arm/cpu/armv7/start.o
 .rel.text.hash_block
                0x00000000        0x0 arch/arm/cpu/armv7/start.o
 .rel.text.hash_command
                0x0404c24c        0x8 arch/arm/cpu/armv7/start.o
 .rel.text.mapset
                0x0404c254        0x8 arch/arm/cpu/armv7/start.o
 .rel.text.syntax_err
                0x0404c25c        0x8 arch/arm/cpu/armv7/start.o
 .rel.text.xmalloc
                0x0404c264        0x8 arch/arm/cpu/armv7/start.o
 .rel.text.xrealloc
                0x0404c26c        0x8 arch/arm/cpu/armv7/start.o
 .rel.text.done_word
                0x0404c274        0x8 arch/arm/cpu/armv7/start.o
 .rel.text.do_showvar
                0x0404c27c       0x20 arch/arm/cpu/armv7/start.o
 .rel.text.is_assignment
                0x0404c29c        0x8 arch/arm/cpu/armv7/start.o
 .rel.text.file_get
                0x0404c2a4       0x30 arch/arm/cpu/armv7/start.o
 .rel.text.b_addqchr
                0x0404c2d4        0x8 arch/arm/cpu/armv7/start.o
 .rel.text.get_local_var
                0x0404c2dc       0x20 arch/arm/cpu/armv7/start.o
 .rel.text.set_local_var
                0x0404c2fc       0x20 arch/arm/cpu/armv7/start.o
 .rel.text.insert_var_value_sub
                0x0404c31c        0x8 arch/arm/cpu/armv7/start.o
 .rel.text.unset_local_var
                0x00000000        0x0 arch/arm/cpu/armv7/start.o
 .rel.text.parse_string_outer
                0x0404c324       0x18 arch/arm/cpu/armv7/start.o
 .rel.text.run_list_real
                0x0404c33c       0x38 arch/arm/cpu/armv7/start.o
 .rel.text.parse_stream_outer
                0x0404c374       0x60 arch/arm/cpu/armv7/start.o
 .rel.text.parse_file_outer
                0x0404c3d4       0x10 arch/arm/cpu/armv7/start.o
 .rel.text.u_boot_hush_start
                0x0404c3e4       0x18 arch/arm/cpu/armv7/start.o
 .rel.text.fdt_error
                0x0404c3fc       0x10 arch/arm/cpu/armv7/start.o
 .rel.text.boot_fdt_add_mem_rsv_regions
                0x0404c40c        0x8 arch/arm/cpu/armv7/start.o
 .rel.text.boot_relocate_fdt
                0x0404c414       0x40 arch/arm/cpu/armv7/start.o
 .rel.text.boot_get_fdt
                0x0404c454       0x90 arch/arm/cpu/armv7/start.o
 .rel.text.image_setup_libfdt
                0x0404c4e4       0x10 arch/arm/cpu/armv7/start.o
 .rel.text.fit_get_desc
                0x0404c4f4        0x8 arch/arm/cpu/armv7/start.o
 .rel.text.fit_get_timestamp
                0x00000000        0x0 arch/arm/cpu/armv7/start.o
 .rel.text.fit_image_get_node
                0x0404c4fc        0x8 arch/arm/cpu/armv7/start.o
 .rel.text.fit_image_get_os
                0x0404c504        0x8 arch/arm/cpu/armv7/start.o
 .rel.text.fit_image_get_arch
                0x0404c50c        0x8 arch/arm/cpu/armv7/start.o
 .rel.text.fit_image_get_type
                0x0404c514        0x8 arch/arm/cpu/armv7/start.o
 .rel.text.fit_image_get_comp
                0x0404c51c        0x8 arch/arm/cpu/armv7/start.o
 .rel.text.fit_image_get_load
                0x0404c524        0x8 arch/arm/cpu/armv7/start.o
 .rel.text.fit_image_get_entry
                0x0404c52c        0x8 arch/arm/cpu/armv7/start.o
 .rel.text.fit_image_get_data
                0x0404c534        0x8 arch/arm/cpu/armv7/start.o
 .rel.text.fit_image_hash_get_algo
                0x0404c53c        0x8 arch/arm/cpu/armv7/start.o
 .rel.text.fit_image_hash_get_value
                0x0404c544        0x8 arch/arm/cpu/armv7/start.o
 .rel.text.fit_image_print_data
                0x0404c54c       0x58 arch/arm/cpu/armv7/start.o
 .rel.text.fit_image_print
                0x0404c5a4       0x80 arch/arm/cpu/armv7/start.o
 .rel.text.fit_set_timestamp
                0x00000000        0x0 arch/arm/cpu/armv7/start.o
 .rel.text.calculate_hash
                0x0404c624       0x18 arch/arm/cpu/armv7/start.o
 .rel.text.fit_image_verify
                0x0404c63c       0x68 arch/arm/cpu/armv7/start.o
 .rel.text.fit_all_image_verify
                0x0404c6a4       0x28 arch/arm/cpu/armv7/start.o
 .rel.text.fit_check_format
                0x0404c6cc       0x10 arch/arm/cpu/armv7/start.o
 .rel.text.fit_conf_find_compat
                0x00000000        0x0 arch/arm/cpu/armv7/start.o
 .rel.text.fit_conf_get_node
                0x0404c6dc       0x10 arch/arm/cpu/armv7/start.o
 .rel.text.fit_conf_print
                0x0404c6ec       0x48 arch/arm/cpu/armv7/start.o
 .rel.text.fit_print_contents
                0x0404c734       0x58 arch/arm/cpu/armv7/start.o
 .rel.text.fit_image_select
                0x0404c78c       0x20 arch/arm/cpu/armv7/start.o
 .rel.text.fit_image_load
                0x0404c7ac       0x70 arch/arm/cpu/armv7/start.o
 .rel.text.on_loadaddr
                0x0404c81c        0x8 arch/arm/cpu/armv7/start.o
 .rel.text.getenv_bootm_low
                0x0404c824        0x8 arch/arm/cpu/armv7/start.o
 .rel.text.getenv_bootm_size
                0x0404c82c       0x10 arch/arm/cpu/armv7/start.o
 .rel.text.getenv_bootm_mapsize
                0x0404c83c        0x8 arch/arm/cpu/armv7/start.o
 .rel.text.genimg_print_size
                0x0404c844       0x10 arch/arm/cpu/armv7/start.o
 .rel.text.genimg_get_os_name
                0x0404c854       0x10 arch/arm/cpu/armv7/start.o
 .rel.text.genimg_get_arch_name
                0x0404c864       0x10 arch/arm/cpu/armv7/start.o
 .rel.text.genimg_get_type_name
                0x0404c874       0x10 arch/arm/cpu/armv7/start.o
 .rel.text.genimg_get_comp_name
                0x0404c884       0x10 arch/arm/cpu/armv7/start.o
 .rel.text.image_print_contents
                0x0404c894       0x50 arch/arm/cpu/armv7/start.o
 .rel.text.genimg_get_os_id
                0x0404c8e4       0x10 arch/arm/cpu/armv7/start.o
 .rel.text.genimg_get_arch_id
                0x0404c8f4       0x10 arch/arm/cpu/armv7/start.o
 .rel.text.genimg_get_type_id
                0x0404c904       0x10 arch/arm/cpu/armv7/start.o
 .rel.text.genimg_get_comp_id
                0x0404c914       0x10 arch/arm/cpu/armv7/start.o
 .rel.text.boot_get_ramdisk
                0x0404c924       0x60 arch/arm/cpu/armv7/start.o
 .rel.text.boot_ramdisk_high
                0x0404c984       0x20 arch/arm/cpu/armv7/start.o
 .rel.text.delete_char.part.0
                0x0404c9a4       0x10 arch/arm/cpu/armv7/start.o
 .rel.text.cread_add_char
                0x0404c9b4        0x8 arch/arm/cpu/armv7/start.o
 .rel.text.readline_into_buffer
                0x0404c9bc       0xb0 arch/arm/cpu/armv7/start.o
 .rel.text.readline
                0x0404ca6c        0x8 arch/arm/cpu/armv7/start.o
 .rel.text.parse_line
                0x00000000        0x0 arch/arm/cpu/armv7/start.o
 .rel.text.main_loop
                0x0404ca74       0x20 arch/arm/cpu/armv7/start.o
 .rel.text.do_run
                0x0404ca94        0x8 arch/arm/cpu/armv7/start.o
 .rel.text.miiphy_get_dev_by_name
                0x0404ca9c       0x10 arch/arm/cpu/armv7/start.o
 .rel.text.miiphy_init
                0x0404caac       0x10 arch/arm/cpu/armv7/start.o
 .rel.text.miiphy_register
                0x0404cabc       0x50 arch/arm/cpu/armv7/start.o
 .rel.text.mdio_register
                0x00000000        0x0 arch/arm/cpu/armv7/start.o
 .rel.text.mdio_list_devices
                0x0404cb0c       0x28 arch/arm/cpu/armv7/start.o
 .rel.text.miiphy_set_current_dev
                0x0404cb34       0x10 arch/arm/cpu/armv7/start.o
 .rel.text.miiphy_get_active_dev
                0x0404cb44        0x8 arch/arm/cpu/armv7/start.o
 .rel.text.mdio_get_current_dev
                0x0404cb4c        0x8 arch/arm/cpu/armv7/start.o
 .rel.text.mdio_phydev_for_ethname
                0x0404cb54       0x10 arch/arm/cpu/armv7/start.o
 .rel.text.miiphy_get_current_dev
                0x0404cb64        0x8 arch/arm/cpu/armv7/start.o
 .rel.text.miiphy_listdev
                0x0404cb6c       0x30 arch/arm/cpu/armv7/start.o
 .rel.text.miiphy_speed
                0x0404cb9c       0x18 arch/arm/cpu/armv7/start.o
 .rel.text.miiphy_duplex
                0x0404cbb4       0x18 arch/arm/cpu/armv7/start.o
 .rel.text.miiphy_link
                0x00000000        0x0 arch/arm/cpu/armv7/start.o
 .rel.text.srec_decode
                0x0404cbcc       0x50 arch/arm/cpu/armv7/start.o
 .rel.text.stdio_get_list
                0x0404cc1c        0x8 arch/arm/cpu/armv7/start.o
 .rel.text.stdio_get_by_name
                0x0404cc24        0x8 arch/arm/cpu/armv7/start.o
 .rel.text.stdio_register
                0x0404cc2c        0x8 arch/arm/cpu/armv7/start.o
 .rel.text.stdio_init
                0x0404cc34       0x30 arch/arm/cpu/armv7/start.o
 .rel.text.usb_stop
                0x0404cc64       0x18 arch/arm/cpu/armv7/start.o
 .rel.text.usb_disable_asynch
                0x0404cc7c        0x8 arch/arm/cpu/armv7/start.o
 .rel.text.usb_control_msg
                0x0404cc84        0x8 arch/arm/cpu/armv7/start.o
 .rel.text.usb_string_sub
                0x0404cc8c        0x8 arch/arm/cpu/armv7/start.o
 .rel.text.usb_get_configuration_no
                0x0404cc94       0x20 arch/arm/cpu/armv7/start.o
 .rel.text.usb_set_interface
                0x0404ccb4        0x8 arch/arm/cpu/armv7/start.o
 .rel.text.usb_get_dev_index
                0x0404ccbc        0x8 arch/arm/cpu/armv7/start.o
 .rel.text.usb_alloc_new_device
                0x0404ccc4       0x18 arch/arm/cpu/armv7/start.o
 .rel.text.usb_free_device
                0x0404ccdc       0x10 arch/arm/cpu/armv7/start.o
 .rel.text.usb_new_device
                0x0404ccec       0xa0 arch/arm/cpu/armv7/start.o
 .rel.text.usb_init
                0x0404cd8c       0x50 arch/arm/cpu/armv7/start.o
 .rel.text.usb_hub_reset
                0x0404cddc        0x8 arch/arm/cpu/armv7/start.o
 .rel.text.usb_hub_port_connect_change
                0x0404cde4        0x8 arch/arm/cpu/armv7/start.o
 .rel.text.usb_hub_configure
                0x0404cdec       0x18 arch/arm/cpu/armv7/start.o
 .rel.text.usb_stor_BBB_transport
                0x0404ce04       0x10 arch/arm/cpu/armv7/start.o
 .rel.text.usb_stor_CB_comdat
                0x0404ce14        0x8 arch/arm/cpu/armv7/start.o
 .rel.text.usb_stor_CBI_get_status.isra.4
                0x0404ce1c        0x8 arch/arm/cpu/armv7/start.o
 .rel.text.usb_stor_CB_transport
                0x0404ce24       0x10 arch/arm/cpu/armv7/start.o
 .rel.text.usb_request_sense.constprop.10
                0x0404ce34        0x8 arch/arm/cpu/armv7/start.o
 .rel.text.usb_stor_write
                0x0404ce3c       0x10 arch/arm/cpu/armv7/start.o
 .rel.text.usb_stor_read
                0x0404ce4c       0x10 arch/arm/cpu/armv7/start.o
 .rel.text.usb_stor_get_dev
                0x0404ce5c       0x10 arch/arm/cpu/armv7/start.o
 .rel.text.usb_stor_info
                0x0404ce6c       0x20 arch/arm/cpu/armv7/start.o
 .rel.text.usb_storage_probe
                0x0404ce8c       0x38 arch/arm/cpu/armv7/start.o
 .rel.text.usb_stor_get_info
                0x0404cec4       0x20 arch/arm/cpu/armv7/start.o
 .rel.text.usb_stor_scan
                0x0404cee4       0x40 arch/arm/cpu/armv7/start.o
 .rel.text.xyzModem_get_hdr
                0x0404cf24       0x30 arch/arm/cpu/armv7/start.o
 .rel.text.xyzModem_stream_open
                0x0404cf54       0x10 arch/arm/cpu/armv7/start.o
 .rel.text.xyzModem_stream_read
                0x0404cf64        0x8 arch/arm/cpu/armv7/start.o
 .rel.text.xyzModem_stream_close
                0x0404cf6c       0x20 arch/arm/cpu/armv7/start.o
 .rel.text.xyzModem_stream_terminate
                0x0404cf8c        0x8 arch/arm/cpu/armv7/start.o
 .rel.text.xyzModem_error
                0x0404cf94       0x10 arch/arm/cpu/armv7/start.o
 .rel.rodata.boot_os
                0x0404cfa4       0x30 arch/arm/cpu/armv7/start.o
 .rel.rodata.op_table
                0x0404cfd4       0x68 arch/arm/cpu/armv7/start.o
 .rel.rodata.reg_4_desc_tbl
                0x0404d03c       0x60 arch/arm/cpu/armv7/start.o
 .rel.rodata.desc_and_len_tbl
                0x0404d09c       0x30 arch/arm/cpu/armv7/start.o
 .rel.rodata.reg_5_desc_tbl
                0x0404d0cc       0x60 arch/arm/cpu/armv7/start.o
 .rel.rodata.reg_2_desc_tbl
                0x0404d12c        0x8 arch/arm/cpu/armv7/start.o
 .rel.rodata.reg_0_5_desc_tbl
                0x0404d134       0x30 arch/arm/cpu/armv7/start.o
 .rel.rodata.reg_3_desc_tbl
                0x0404d164       0x18 arch/arm/cpu/armv7/start.o
 .rel.rodata.reg_0_desc_tbl
                0x0404d17c       0x50 arch/arm/cpu/armv7/start.o
 .rel.rodata.reg_1_desc_tbl
                0x0404d1cc       0x80 arch/arm/cpu/armv7/start.o
 .rel.rodata.subcmd_list
                0x0404d24c       0x10 arch/arm/cpu/armv7/start.o
 .rel.rodata.CSWTCH.26
                0x0404d25c       0x28 arch/arm/cpu/armv7/start.o
 .rel.rodata.uimage_comp
                0x0404d284       0x60 arch/arm/cpu/armv7/start.o
 .rel.rodata.uimage_os
                0x0404d2e4       0x98 arch/arm/cpu/armv7/start.o
 .rel.rodata.uimage_arch
                0x0404d37c      0x168 arch/arm/cpu/armv7/start.o
 .rel.rodata.uimage_type
                0x0404d4e4      0x118 arch/arm/cpu/armv7/start.o
 .rel.rodata.CSWTCH.28
                0x0404d5fc       0x40 arch/arm/cpu/armv7/start.o
 .rel.u_boot_list_2_cmd_2_bdinfo
                0x0404d63c       0x20 arch/arm/cpu/armv7/start.o
 .rel.u_boot_list_2_cmd_2_go
                0x0404d65c       0x20 arch/arm/cpu/armv7/start.o
 .rel.u_boot_list_2_cmd_2_reset
                0x0404d67c       0x20 arch/arm/cpu/armv7/start.o
 .rel.u_boot_list_2_cmd_2_iminfo
                0x0404d69c       0x20 arch/arm/cpu/armv7/start.o
 .rel.u_boot_list_2_cmd_2_bootz
                0x0404d6bc       0x20 arch/arm/cpu/armv7/start.o
 .rel.u_boot_list_2_cmd_2_boot
                0x0404d6dc       0x20 arch/arm/cpu/armv7/start.o
 .rel.u_boot_list_2_cmd_2_bootd
                0x0404d6fc       0x20 arch/arm/cpu/armv7/start.o
 .rel.u_boot_list_2_cmd_2_bootm
                0x0404d71c       0x20 arch/arm/cpu/armv7/start.o
 .rel.data.cmd_bootm_sub
                0x0404d73c       0xd8 arch/arm/cpu/armv7/start.o
 .rel.u_boot_list_2_cmd_2_icache
                0x0404d814       0x20 arch/arm/cpu/armv7/start.o
 .rel.u_boot_list_2_cmd_2_dcache
                0x0404d834       0x20 arch/arm/cpu/armv7/start.o
 .rel.u_boot_list_2_cmd_2_clk
                0x0404d854       0x20 arch/arm/cpu/armv7/start.o
 .rel.data.cmd_clk_sub
                0x0404d874       0x20 arch/arm/cpu/armv7/start.o
 .rel.u_boot_list_2_cmd_2_coninfo
                0x0404d894       0x20 arch/arm/cpu/armv7/start.o
 .rel.u_boot_list_2_cmd_2_echo
                0x0404d8b4       0x20 arch/arm/cpu/armv7/start.o
 .rel.u_boot_list_2_cmd_2_bootelf
                0x0404d8d4       0x20 arch/arm/cpu/armv7/start.o
 .rel.u_boot_list_2_cmd_2_bootvx
                0x0404d8f4       0x20 arch/arm/cpu/armv7/start.o
 .rel.u_boot_list_2_cmd_2_exit
                0x0404d914       0x20 arch/arm/cpu/armv7/start.o
 .rel.u_boot_list_2_cmd_2_ext2ls
                0x0404d934       0x20 arch/arm/cpu/armv7/start.o
 .rel.u_boot_list_2_cmd_2_ext2load
                0x0404d954       0x20 arch/arm/cpu/armv7/start.o
 .rel.u_boot_list_2_cmd_2_ext4load
                0x0404d974       0x20 arch/arm/cpu/armv7/start.o
 .rel.u_boot_list_2_cmd_2_ext4write
                0x0404d994       0x20 arch/arm/cpu/armv7/start.o
 .rel.u_boot_list_2_cmd_2_ext4ls
                0x0404d9b4       0x20 arch/arm/cpu/armv7/start.o
 .rel.u_boot_list_2_cmd_2_fatinfo
                0x0404d9d4       0x20 arch/arm/cpu/armv7/start.o
 .rel.u_boot_list_2_cmd_2_fatwrite
                0x0404d9f4       0x20 arch/arm/cpu/armv7/start.o
 .rel.u_boot_list_2_cmd_2_fatload
                0x0404da14       0x20 arch/arm/cpu/armv7/start.o
 .rel.u_boot_list_2_cmd_2_fatls
                0x0404da34       0x20 arch/arm/cpu/armv7/start.o
 .rel.u_boot_list_2_cmd_2_fdt
                0x0404da54       0x20 arch/arm/cpu/armv7/start.o
 .rel.u_boot_list_2_cmd_2_fpga
                0x0404da74       0x20 arch/arm/cpu/armv7/start.o
 .rel.u_boot_list_2_cmd_2_question_mark
                0x0404da94       0x20 arch/arm/cpu/armv7/start.o
 .rel.u_boot_list_2_cmd_2_help
                0x0404dab4       0x20 arch/arm/cpu/armv7/start.o
 .rel.data.cmd_i2c_sub
                0x0404dad4      0x1a0 arch/arm/cpu/armv7/start.o
 .rel.u_boot_list_2_cmd_2_i2c
                0x0404dc74       0x20 arch/arm/cpu/armv7/start.o
 .rel.u_boot_list_2_cmd_2_itest
                0x0404dc94       0x20 arch/arm/cpu/armv7/start.o
 .rel.u_boot_list_2_cmd_2_loadb
                0x0404dcb4       0x20 arch/arm/cpu/armv7/start.o
 .rel.u_boot_list_2_cmd_2_loadx
                0x0404dcd4       0x20 arch/arm/cpu/armv7/start.o
 .rel.u_boot_list_2_cmd_2_loady
                0x0404dcf4       0x20 arch/arm/cpu/armv7/start.o
 .rel.u_boot_list_2_cmd_2_loads
                0x0404dd14       0x20 arch/arm/cpu/armv7/start.o
 .rel.u_boot_list_2_cmd_2_mdio
                0x0404dd34       0x20 arch/arm/cpu/armv7/start.o
 .rel.u_boot_list_2_cmd_2_base
                0x0404dd54       0x20 arch/arm/cpu/armv7/start.o
 .rel.u_boot_list_2_cmd_2_cmp
                0x0404dd74       0x20 arch/arm/cpu/armv7/start.o
 .rel.u_boot_list_2_cmd_2_nm
                0x0404dd94       0x20 arch/arm/cpu/armv7/start.o
 .rel.u_boot_list_2_cmd_2_loop
                0x0404ddb4       0x20 arch/arm/cpu/armv7/start.o
 .rel.u_boot_list_2_cmd_2_cp
                0x0404ddd4       0x20 arch/arm/cpu/armv7/start.o
 .rel.u_boot_list_2_cmd_2_mm
                0x0404ddf4       0x20 arch/arm/cpu/armv7/start.o
 .rel.u_boot_list_2_cmd_2_crc32
                0x0404de14       0x20 arch/arm/cpu/armv7/start.o
 .rel.u_boot_list_2_cmd_2_md
                0x0404de34       0x20 arch/arm/cpu/armv7/start.o
 .rel.u_boot_list_2_cmd_2_mw
                0x0404de54       0x20 arch/arm/cpu/armv7/start.o
 .rel.u_boot_list_2_cmd_2_mii
                0x0404de74       0x20 arch/arm/cpu/armv7/start.o
 .rel.u_boot_list_2_cmd_2_sleep
                0x0404de94       0x20 arch/arm/cpu/armv7/start.o
 .rel.u_boot_list_2_cmd_2_mmcinfo
                0x0404deb4       0x20 arch/arm/cpu/armv7/start.o
 .rel.u_boot_list_2_cmd_2_mmc
                0x0404ded4       0x20 arch/arm/cpu/armv7/start.o
 .rel.u_boot_list_2_cmd_2_ping
                0x0404def4       0x20 arch/arm/cpu/armv7/start.o
 .rel.u_boot_list_2_cmd_2_dhcp
                0x0404df14       0x20 arch/arm/cpu/armv7/start.o
 .rel.u_boot_list_2_cmd_2_tftpput
                0x0404df34       0x20 arch/arm/cpu/armv7/start.o
 .rel.u_boot_list_2_cmd_2_bootp
                0x0404df54       0x20 arch/arm/cpu/armv7/start.o
 .rel.u_boot_list_2_cmd_2_tftpboot
                0x0404df74       0x20 arch/arm/cpu/armv7/start.o
 .rel.u_boot_list_2_cmd_2_nfs
                0x0404df94       0x20 arch/arm/cpu/armv7/start.o
 .rel.u_boot_list_2_cmd_2_setenv
                0x0404dfb4       0x28 arch/arm/cpu/armv7/start.o
 .rel.u_boot_list_2_cmd_2_env
                0x0404dfdc       0x20 arch/arm/cpu/armv7/start.o
 .rel.u_boot_list_2_cmd_2_saveenv
                0x0404dffc       0x20 arch/arm/cpu/armv7/start.o
 .rel.data.cmd_env_sub
                0x0404e01c      0x120 arch/arm/cpu/armv7/start.o
 .rel.u_boot_list_2_cmd_2_printenv
                0x0404e13c       0x28 arch/arm/cpu/armv7/start.o
 .rel.u_boot_list_2_cmd_2_editenv
                0x0404e164       0x28 arch/arm/cpu/armv7/start.o
 .rel.u_boot_list_2_cmd_2_run
                0x0404e18c       0x28 arch/arm/cpu/armv7/start.o
 .rel.u_boot_list_2_cmd_2_sf
                0x0404e1b4       0x20 arch/arm/cpu/armv7/start.o
 .rel.u_boot_list_2_cmd_2_source
                0x0404e1d4       0x20 arch/arm/cpu/armv7/start.o
 .rel.u_boot_list_2_cmd_2_sspi
                0x0404e1f4       0x20 arch/arm/cpu/armv7/start.o
 .rel.data.cmd_spl_export_sub
                0x0404e214       0x30 arch/arm/cpu/armv7/start.o
 .rel.data.__compound_literal.0
                0x0404e244       0x38 arch/arm/cpu/armv7/start.o
 .rel.data.cmd_spl_sub
                0x0404e27c       0x18 arch/arm/cpu/armv7/start.o
 .rel.u_boot_list_2_cmd_2_spl
                0x0404e294       0x20 arch/arm/cpu/armv7/start.o
 .rel.u_boot_list_2_cmd_2_test
                0x0404e2b4       0x20 arch/arm/cpu/armv7/start.o
 .rel.u_boot_list_2_cmd_2_true
                0x0404e2d4       0x18 arch/arm/cpu/armv7/start.o
 .rel.u_boot_list_2_cmd_2_false
                0x0404e2ec       0x18 arch/arm/cpu/armv7/start.o
 .rel.u_boot_list_2_cmd_2_usb
                0x0404e304       0x20 arch/arm/cpu/armv7/start.o
 .rel.u_boot_list_2_cmd_2_usbboot
                0x0404e324       0x20 arch/arm/cpu/armv7/start.o
 .rel.u_boot_list_2_cmd_2_version
                0x0404e344       0x20 arch/arm/cpu/armv7/start.o
 .rel.u_boot_list_2_cmd_2_imxtract
                0x0404e364       0x20 arch/arm/cpu/armv7/start.o
 .rel.u_boot_list_2_env_clbk_2_console
                0x0404e384       0x10 arch/arm/cpu/armv7/start.o
 .rel.data.av_  0x0404e394      0x800 arch/arm/cpu/armv7/start.o
 .rel.u_boot_list_2_env_clbk_2_callbacks
                0x0404eb94       0x10 arch/arm/cpu/armv7/start.o
 .rel.data.env_htab
                0x0404eba4        0x8 arch/arm/cpu/armv7/start.o
 .rel.u_boot_list_2_env_clbk_2_flags
                0x0404ebac       0x10 arch/arm/cpu/armv7/start.o
 .rel.data.env_name_spec
                0x0404ebbc        0x8 arch/arm/cpu/armv7/start.o
 .rel.data.of_busses
                0x00000000        0x0 arch/arm/cpu/armv7/start.o
 .rel.data.hash_algo
                0x00000000        0x0 arch/arm/cpu/armv7/start.o
 .rel.data.reserved_list
                0x0404ebc4       0x58 arch/arm/cpu/armv7/start.o
 .rel.u_boot_list_2_cmd_2_showvar
                0x0404ec1c       0x20 arch/arm/cpu/armv7/start.o
 .rel.u_boot_list_2_env_clbk_2_loadaddr
                0x0404ec3c       0x10 arch/arm/cpu/armv7/start.o
 .rel.data.stdio_names
                0x0404ec4c       0x18 arch/arm/cpu/armv7/start.o
 .rel.text.get_dev
                0x0404ec64        0x8 arch/arm/cpu/armv7/start.o
 .rel.text.dev_print
                0x0404ec6c      0x110 arch/arm/cpu/armv7/start.o
 .rel.text.print_part
                0x0404ed7c       0xb0 arch/arm/cpu/armv7/start.o
 .rel.text.get_device
                0x0404ee2c       0x10 arch/arm/cpu/armv7/start.o
 .rel.text.get_device_and_partition
                0x0404ee3c       0x70 arch/arm/cpu/armv7/start.o
 .rel.text.test_block_type
                0x0404eeac       0x10 arch/arm/cpu/armv7/start.o
 .rel.text.print_partition_extended
                0x0404eebc       0x30 arch/arm/cpu/armv7/start.o
 .rel.text.get_partition_info_extended.constprop.2
                0x0404eeec       0x80 arch/arm/cpu/armv7/start.o
 .rel.text.print_part_dos
                0x0404ef6c        0x8 arch/arm/cpu/armv7/start.o
 .rel.rodata.block_drvr
                0x0404ef74       0x20 arch/arm/cpu/armv7/start.o
 .rel.text.fpga_no_sup
                0x0404ef94       0x18 arch/arm/cpu/armv7/start.o
 .rel.text.fpga_get_desc
                0x0404efac       0x10 arch/arm/cpu/armv7/start.o
 .rel.text.fpga_dev_info
                0x0404efbc       0x30 arch/arm/cpu/armv7/start.o
 .rel.text.fpga_validate
                0x0404efec       0x10 arch/arm/cpu/armv7/start.o
 .rel.text.fpga_init
                0x0404effc       0x10 arch/arm/cpu/armv7/start.o
 .rel.text.fpga_count
                0x0404f00c        0x8 arch/arm/cpu/armv7/start.o
 .rel.text.fpga_add
                0x0404f014       0x38 arch/arm/cpu/armv7/start.o
 .rel.text.fpga_loadbitstream
                0x0404f04c       0x70 arch/arm/cpu/armv7/start.o
 .rel.text.fpga_fsload
                0x0404f0bc       0x10 arch/arm/cpu/armv7/start.o
 .rel.text.fpga_load
                0x0404f0cc       0x20 arch/arm/cpu/armv7/start.o
 .rel.text.fpga_dump
                0x0404f0ec       0x20 arch/arm/cpu/armv7/start.o
 .rel.text.fpga_info
                0x0404f10c       0x18 arch/arm/cpu/armv7/start.o
 .rel.text.xilinx_validate
                0x0404f124       0x20 arch/arm/cpu/armv7/start.o
 .rel.text.xilinx_fsload
                0x0404f144       0x18 arch/arm/cpu/armv7/start.o
 .rel.text.xilinx_load
                0x0404f15c       0x58 arch/arm/cpu/armv7/start.o
 .rel.text.xilinx_dump
                0x0404f1b4       0x58 arch/arm/cpu/armv7/start.o
 .rel.text.xilinx_info
                0x0404f20c      0x148 arch/arm/cpu/armv7/start.o
 .rel.text.zynq_dma_transfer.constprop.4
                0x0404f354       0x10 arch/arm/cpu/armv7/start.o
 .rel.text.zynq_align_dma_buffer
                0x0404f364       0x18 arch/arm/cpu/armv7/start.o
 .rel.text.zynq_validate_bitstream.isra.3
                0x0404f37c       0x38 arch/arm/cpu/armv7/start.o
 .rel.text.zynq_fsload
                0x0404f3b4       0x10 arch/arm/cpu/armv7/start.o
 .rel.text.zynq_load
                0x0404f3c4       0x10 arch/arm/cpu/armv7/start.o
 .rel.text.i2c_get_adapter
                0x0404f3d4       0x18 arch/arm/cpu/armv7/start.o
 .rel.text.i2c_init_bus
                0x0404f3ec       0x10 arch/arm/cpu/armv7/start.o
 .rel.text.i2c_set_bus_num
                0x0404f3fc       0x18 arch/arm/cpu/armv7/start.o
 .rel.u_boot_list_2_i2c_2_zynq_0
                0x0404f414       0x30 arch/arm/cpu/armv7/start.o
 .rel.u_boot_list_2_i2c_2_zynq_1
                0x0404f444       0x30 arch/arm/cpu/armv7/start.o
 .rel.text.input_send_keycodes
                0x00000000        0x0 arch/arm/cpu/armv7/start.o
 .rel.text.input_init
                0x00000000        0x0 arch/arm/cpu/armv7/start.o
 .rel.text.input_stdio_register
                0x00000000        0x0 arch/arm/cpu/armv7/start.o
 .rel.rodata.kbd_to_ansi364
                0x00000000        0x0 arch/arm/cpu/armv7/start.o
 .rel.text.mmc_set_capacity
                0x0404f474       0x40 arch/arm/cpu/armv7/start.o
 .rel.text.mmc_send_status
                0x0404f4b4       0x10 arch/arm/cpu/armv7/start.o
 .rel.text.find_mmc_device
                0x0404f4c4       0x10 arch/arm/cpu/armv7/start.o
 .rel.text.mmc_bread
                0x0404f4d4       0x10 arch/arm/cpu/armv7/start.o
 .rel.text.mmc_startup
                0x0404f4e4       0xa0 arch/arm/cpu/armv7/start.o
 .rel.text.mmc_register
                0x0404f584       0x28 arch/arm/cpu/armv7/start.o
 .rel.text.mmc_start_init
                0x0404f5ac       0x10 arch/arm/cpu/armv7/start.o
 .rel.text.print_mmc_devices
                0x0404f5bc       0x20 arch/arm/cpu/armv7/start.o
 .rel.text.get_mmc_num
                0x0404f5dc        0x8 arch/arm/cpu/armv7/start.o
 .rel.text.mmc_initialize
                0x0404f5e4       0x10 arch/arm/cpu/armv7/start.o
 .rel.text.mmc_berase
                0x0404f5f4       0x10 arch/arm/cpu/armv7/start.o
 .rel.text.mmc_bwrite
                0x0404f604       0x18 arch/arm/cpu/armv7/start.o
 .rel.text.sdhci_set_ios
                0x0404f61c       0x10 arch/arm/cpu/armv7/start.o
 .rel.text.sdhci_init
                0x0404f62c       0x18 arch/arm/cpu/armv7/start.o
 .rel.text.sdhci_reset
                0x0404f644       0x10 arch/arm/cpu/armv7/start.o
 .rel.text.sdhci_send_command
                0x0404f654       0x48 arch/arm/cpu/armv7/start.o
 .rel.text.add_sdhci
                0x0404f69c       0x38 arch/arm/cpu/armv7/start.o
 .rel.text.zynq_sdhci_init
                0x0404f6d4       0x10 arch/arm/cpu/armv7/start.o
 .rel.text.spi_flash_set_qeb
                0x0404f6e4        0x8 arch/arm/cpu/armv7/start.o
 .rel.text.spi_flash_probe
                0x0404f6ec       0x78 arch/arm/cpu/armv7/start.o
 .rel.rodata.spi_flash_params_table
                0x0404f764      0x1a8 arch/arm/cpu/armv7/start.o
 .rel.text.phy_setup_op
                0x0404f90c       0x10 arch/arm/cpu/armv7/start.o
 .rel.text.zynq_gem_miiphy_write
                0x0404f91c        0x8 arch/arm/cpu/armv7/start.o
 .rel.text.zynq_gem_recv
                0x0404f924        0x8 arch/arm/cpu/armv7/start.o
 .rel.text.zynq_gem_send
                0x0404f92c       0x10 arch/arm/cpu/armv7/start.o
 .rel.text.zynq_gem_miiphyread
                0x0404f93c        0x8 arch/arm/cpu/armv7/start.o
 .rel.text.zynq_gem_init
                0x0404f944       0x10 arch/arm/cpu/armv7/start.o
 .rel.text.zynq_gem_initialize
                0x0404f954       0x40 arch/arm/cpu/armv7/start.o
 .rel.text.m88e1xxx_parse_status
                0x0404f994       0x18 arch/arm/cpu/armv7/start.o
 .rel.text.m88e1111s_config
                0x0404f9ac       0x10 arch/arm/cpu/armv7/start.o
 .rel.text.phy_marvell_init
                0x0404f9bc       0x48 arch/arm/cpu/armv7/start.o
 .rel.text.phy_device_create
                0x0404fa04       0x18 arch/arm/cpu/armv7/start.o
 .rel.text.get_phy_device_by_mask
                0x0404fa1c        0x8 arch/arm/cpu/armv7/start.o
 .rel.text.genphy_update_link
                0x0404fa24       0x28 arch/arm/cpu/armv7/start.o
 .rel.text.phy_register
                0x0404fa4c        0x8 arch/arm/cpu/armv7/start.o
 .rel.text.phy_reset
                0x0404fa54        0x8 arch/arm/cpu/armv7/start.o
 .rel.text.phy_connect_dev
                0x0404fa5c        0x8 arch/arm/cpu/armv7/start.o
 .rel.text.phy_connect
                0x0404fa64        0x8 arch/arm/cpu/armv7/start.o
 .rel.data.M88E1111S_driver
                0x0404fa6c       0x20 arch/arm/cpu/armv7/start.o
 .rel.data.M88E1310_driver
                0x0404fa8c       0x20 arch/arm/cpu/armv7/start.o
 .rel.data.M88E1011S_driver
                0x0404faac       0x20 arch/arm/cpu/armv7/start.o
 .rel.data.M88E1118_driver
                0x0404facc       0x20 arch/arm/cpu/armv7/start.o
 .rel.data.M88E1518_driver
                0x0404faec       0x20 arch/arm/cpu/armv7/start.o
 .rel.data.M88E1145_driver
                0x0404fb0c       0x20 arch/arm/cpu/armv7/start.o
 .rel.data.M88E1149S_driver
                0x0404fb2c       0x20 arch/arm/cpu/armv7/start.o
 .rel.data.M88E1121R_driver
                0x0404fb4c       0x20 arch/arm/cpu/armv7/start.o
 .rel.data.M88E1118R_driver
                0x0404fb6c       0x20 arch/arm/cpu/armv7/start.o
 .rel.data.phy_drivers
                0x0404fb8c       0x10 arch/arm/cpu/armv7/start.o
 .rel.data.genphy_driver
                0x0404fb9c       0x20 arch/arm/cpu/armv7/start.o
 .rel.text.get_current
                0x0404fbbc       0x10 arch/arm/cpu/armv7/start.o
 .rel.text.serial_register
                0x0404fbcc        0x8 arch/arm/cpu/armv7/start.o
 .rel.text.serial_stdio_init
                0x0404fbd4        0x8 arch/arm/cpu/armv7/start.o
 .rel.text.serial_assign
                0x0404fbdc       0x10 arch/arm/cpu/armv7/start.o
 .rel.text.serial_reinit_all
                0x00000000        0x0 arch/arm/cpu/armv7/start.o
 .rel.text.on_baudrate
                0x0404fbec       0x20 arch/arm/cpu/armv7/start.o
 .rel.text.uart_zynq_serial_putc
                0x0404fc0c        0x8 arch/arm/cpu/armv7/start.o
 .rel.text.uart_zynq_serial_setbrg
                0x0404fc14       0x10 arch/arm/cpu/armv7/start.o
 .rel.text.default_serial_console
                0x0404fc24        0x8 arch/arm/cpu/armv7/start.o
 .rel.text.zynq_serial_initalize
                0x0404fc2c       0x10 arch/arm/cpu/armv7/start.o
 .rel.u_boot_list_2_env_clbk_2_baudrate
                0x0404fc3c       0x10 arch/arm/cpu/armv7/start.o
 .rel.data.uart_zynq_serial0_device
                0x0404fc4c       0x30 arch/arm/cpu/armv7/start.o
 .rel.data.uart_zynq_serial1_device
                0x0404fc7c       0x30 arch/arm/cpu/armv7/start.o
 .rel.text.spi_set_wordlen
                0x00000000        0x0 arch/arm/cpu/armv7/start.o
 .rel.text.zynq_qspi_setup_transfer
                0x0404fcac       0x10 arch/arm/cpu/armv7/start.o
 .rel.text.zynq_qspi_fill_tx_fifo
                0x0404fcbc       0x28 arch/arm/cpu/armv7/start.o
 .rel.text.spi_setup_slave
                0x0404fce4       0x30 arch/arm/cpu/armv7/start.o
 .rel.text.spi_xfer
                0x0404fd14       0x38 arch/arm/cpu/armv7/start.o
 .rel.text.ehci_shutdown
                0x0404fd4c        0x8 arch/arm/cpu/armv7/start.o
 .rel.text.ehci_td_buffer
                0x0404fd54        0x8 arch/arm/cpu/armv7/start.o
 .rel.text.ehci_submit_async
                0x0404fd5c       0x30 arch/arm/cpu/armv7/start.o
 .rel.text.disable_periodic.isra.0
                0x0404fd8c        0x8 arch/arm/cpu/armv7/start.o
 .rel.text.enable_periodic.isra.1
                0x0404fd94        0x8 arch/arm/cpu/armv7/start.o
 .rel.text.__ehci_set_usbmode
                0x0404fd9c        0x8 arch/arm/cpu/armv7/start.o
 .rel.text.ehci_submit_root
                0x0404fda4       0x28 arch/arm/cpu/armv7/start.o
 .rel.text.usb_lowlevel_stop
                0x0404fdcc        0x8 arch/arm/cpu/armv7/start.o
 .rel.text.usb_lowlevel_init
                0x0404fdd4       0x20 arch/arm/cpu/armv7/start.o
 .rel.text.create_int_queue
                0x0404fdf4        0x8 arch/arm/cpu/armv7/start.o
 .rel.text.destroy_int_queue
                0x0404fdfc       0x10 arch/arm/cpu/armv7/start.o
 .rel.text.submit_int_msg
                0x0404fe0c       0x18 arch/arm/cpu/armv7/start.o
 .rel.text.ehci_hcd_init
                0x0404fe24       0x28 arch/arm/cpu/armv7/start.o
 .rel.text.ulpi_wakeup
                0x0404fe4c        0x8 arch/arm/cpu/armv7/start.o
 .rel.text.ulpi_request.part.1
                0x0404fe54        0x8 arch/arm/cpu/armv7/start.o
 .rel.text.ulpi_init
                0x0404fe5c        0x8 arch/arm/cpu/armv7/start.o
 .rel.text.ulpi_select_transceiver
                0x00000000        0x0 arch/arm/cpu/armv7/start.o
 .rel.text.ulpi_opmode_sel
                0x00000000        0x0 arch/arm/cpu/armv7/start.o
 .rel.text.ulpi_serial_mode_enable
                0x00000000        0x0 arch/arm/cpu/armv7/start.o
 .rel.text.ulpi_suspend
                0x00000000        0x0 arch/arm/cpu/armv7/start.o
 .rel.text.__ulpi_reset_wait
                0x00000000        0x0 arch/arm/cpu/armv7/start.o
 .rel.text.ulpi_reset
                0x00000000        0x0 arch/arm/cpu/armv7/start.o
 .rel.text.ext2fs_crc16
                0x0404fe64        0x8 arch/arm/cpu/armv7/start.o
 .rel.text.ext4fs_set_blk_dev
                0x0404fe6c       0x18 arch/arm/cpu/armv7/start.o
 .rel.text.ext4fs_devread
                0x0404fe84       0x38 arch/arm/cpu/armv7/start.o
 .rel.text.put_ext4
                0x0404febc       0x20 arch/arm/cpu/armv7/start.o
 .rel.text.ext4fs_set_block_bmap
                0x0404fedc        0x8 arch/arm/cpu/armv7/start.o
 .rel.text.ext4fs_reset_block_bmap
                0x0404fee4        0x8 arch/arm/cpu/armv7/start.o
 .rel.text.ext4fs_set_inode_bmap
                0x0404feec        0x8 arch/arm/cpu/armv7/start.o
 .rel.text.ext4fs_reset_inode_bmap
                0x0404fef4        0x8 arch/arm/cpu/armv7/start.o
 .rel.text.ext4fs_get_new_blk_no
                0x0404fefc       0x10 arch/arm/cpu/armv7/start.o
 .rel.text.ext4fs_get_new_inode_no
                0x0404ff0c       0x10 arch/arm/cpu/armv7/start.o
 .rel.text.ext4fs_allocate_blocks
                0x0404ff1c       0x30 arch/arm/cpu/armv7/start.o
 .rel.text.ext4fs_iget
                0x0404ff4c        0x8 arch/arm/cpu/armv7/start.o
 .rel.text.read_allocated_block
                0x0404ff54       0xb8 arch/arm/cpu/armv7/start.o
 .rel.text.ext4fs_update_parent_dentry
                0x0405000c       0x30 arch/arm/cpu/armv7/start.o
 .rel.text.ext4fs_get_parent_inode_num
                0x0405003c       0x28 arch/arm/cpu/armv7/start.o
 .rel.text.ext4fs_filename_check
                0x04050064       0x10 arch/arm/cpu/armv7/start.o
 .rel.text.ext4fs_close
                0x04050074       0x58 arch/arm/cpu/armv7/start.o
 .rel.text.ext4fs_iterate_dir
                0x040500cc       0x28 arch/arm/cpu/armv7/start.o
 .rel.text.ext4fs_find_file1
                0x040500f4       0x10 arch/arm/cpu/armv7/start.o
 .rel.text.ext4fs_find_file
                0x04050104        0x8 arch/arm/cpu/armv7/start.o
 .rel.text.ext4fs_open
                0x0405010c       0x10 arch/arm/cpu/armv7/start.o
 .rel.text.ext4fs_mount
                0x0405011c       0x10 arch/arm/cpu/armv7/start.o
 .rel.text.ext4fs_dump_metadata
                0x0405012c        0x8 arch/arm/cpu/armv7/start.o
 .rel.text.ext4fs_free_journal
                0x04050134       0x28 arch/arm/cpu/armv7/start.o
 .rel.text.ext4fs_log_gdt
                0x0405015c       0x10 arch/arm/cpu/armv7/start.o
 .rel.text.ext4fs_log_journal
                0x0405016c       0x20 arch/arm/cpu/armv7/start.o
 .rel.text.ext4fs_put_metadata
                0x0405018c       0x20 arch/arm/cpu/armv7/start.o
 .rel.text.print_revoke_blks
                0x00000000        0x0 arch/arm/cpu/armv7/start.o
 .rel.text.ext4fs_push_revoke_blk
                0x040501ac       0x28 arch/arm/cpu/armv7/start.o
 .rel.text.ext4fs_free_revoke_blks
                0x040501d4       0x18 arch/arm/cpu/armv7/start.o
 .rel.text.check_blknr_for_revoke
                0x040501ec        0x8 arch/arm/cpu/armv7/start.o
 .rel.text.recover_transaction
                0x040501f4       0x10 arch/arm/cpu/armv7/start.o
 .rel.text.print_jrnl_status
                0x04050204       0x10 arch/arm/cpu/armv7/start.o
 .rel.text.ext4fs_check_journal_state
                0x04050214       0x18 arch/arm/cpu/armv7/start.o
 .rel.text.ext4fs_init_journal
                0x0405022c       0x38 arch/arm/cpu/armv7/start.o
 .rel.text.ext4fs_update_journal
                0x04050264       0x20 arch/arm/cpu/armv7/start.o
 .rel.text.ext4fs_update
                0x04050284       0x10 arch/arm/cpu/armv7/start.o
 .rel.text.ext4fs_get_bgdtable
                0x04050294        0x8 arch/arm/cpu/armv7/start.o
 .rel.text.ext4fs_deinit
                0x0405029c        0x8 arch/arm/cpu/armv7/start.o
 .rel.text.ext4fs_init
                0x040502a4       0x10 arch/arm/cpu/armv7/start.o
 .rel.text.ext4fs_write
                0x040502b4       0x58 arch/arm/cpu/armv7/start.o
 .rel.text.get_fs
                0x0405030c        0x8 arch/arm/cpu/armv7/start.o
 .rel.text.ext4fs_free_node
                0x04050314        0x8 arch/arm/cpu/armv7/start.o
 .rel.text.ext4fs_read_file
                0x0405031c        0x8 arch/arm/cpu/armv7/start.o
 .rel.text.ext4fs_ls
                0x04050324       0x10 arch/arm/cpu/armv7/start.o
 .rel.text.ext4fs_read
                0x04050334       0x10 arch/arm/cpu/armv7/start.o
 .rel.text.ext4_read_file
                0x04050344       0x10 arch/arm/cpu/armv7/start.o
 .rel.text.downcase
                0x04050354        0x8 arch/arm/cpu/armv7/start.o
 .rel.text.disk_read
                0x0405035c       0x10 arch/arm/cpu/armv7/start.o
 .rel.text.check_overflow
                0x0405036c       0x10 arch/arm/cpu/armv7/start.o
 .rel.text.disk_write
                0x0405037c       0x20 arch/arm/cpu/armv7/start.o
 .rel.text.flush_fat_buffer
                0x0405039c        0x8 arch/arm/cpu/armv7/start.o
 .rel.text.get_cluster
                0x040503a4        0x8 arch/arm/cpu/armv7/start.o
 .rel.text.read_bootsectandvi
                0x040503ac       0x20 arch/arm/cpu/armv7/start.o
 .rel.text.set_name
                0x040503cc        0x8 arch/arm/cpu/armv7/start.o
 .rel.text.get_vfatname
                0x040503d4       0x10 arch/arm/cpu/armv7/start.o
 .rel.text.flush_dir_table.constprop.7
                0x040503e4       0x20 arch/arm/cpu/armv7/start.o
 .rel.text.do_fat_write
                0x04050404       0x80 arch/arm/cpu/armv7/start.o
 .rel.text.fat_set_blk_dev
                0x04050484       0x28 arch/arm/cpu/armv7/start.o
 .rel.text.fat_register_device
                0x00000000        0x0 arch/arm/cpu/armv7/start.o
 .rel.text.do_fat_read_at
                0x040504ac       0x58 arch/arm/cpu/armv7/start.o
 .rel.text.file_fat_detectfs
                0x04050504       0xb0 arch/arm/cpu/armv7/start.o
 .rel.text.file_fat_read_at
                0x040505b4        0x8 arch/arm/cpu/armv7/start.o
 .rel.text.fat_read_file
                0x040505bc        0x8 arch/arm/cpu/armv7/start.o
 .rel.text.file_fat_write
                0x040505c4        0x8 arch/arm/cpu/armv7/start.o
 .rel.text.file_getfsname
                0x00000000        0x0 arch/arm/cpu/armv7/start.o
 .rel.text.file_cd
                0x00000000        0x0 arch/arm/cpu/armv7/start.o
 .rel.text.file_detectfs
                0x00000000        0x0 arch/arm/cpu/armv7/start.o
 .rel.text.file_ls
                0x00000000        0x0 arch/arm/cpu/armv7/start.o
 .rel.text.file_read
                0x00000000        0x0 arch/arm/cpu/armv7/start.o
 .rel.text.fs_probe_unsupported
                0x040505cc        0x8 arch/arm/cpu/armv7/start.o
 .rel.text.fs_get_info
                0x040505d4        0x8 arch/arm/cpu/armv7/start.o
 .rel.text.fs_close
                0x040505dc        0x8 arch/arm/cpu/armv7/start.o
 .rel.text.fs_set_blk_dev
                0x040505e4       0x20 arch/arm/cpu/armv7/start.o
 .rel.text.fs_ls
                0x04050604        0x8 arch/arm/cpu/armv7/start.o
 .rel.text.fs_read
                0x0405060c       0x10 arch/arm/cpu/armv7/start.o
 .rel.text.fs_write
                0x00000000        0x0 arch/arm/cpu/armv7/start.o
 .rel.text.do_load
                0x0405061c       0x48 arch/arm/cpu/armv7/start.o
 .rel.text.do_ls
                0x04050664        0x8 arch/arm/cpu/armv7/start.o
 .rel.text.do_save
                0x00000000        0x0 arch/arm/cpu/armv7/start.o
 .rel.rodata.filesystems
                0x00000000        0x0 arch/arm/cpu/armv7/start.o
 .rel.data.fstypes
                0x0405066c       0x68 arch/arm/cpu/armv7/start.o
 .rel.text.cyg_crc16
                0x040506d4        0x8 arch/arm/cpu/armv7/start.o
 .rel.text.crc32_no_comp
                0x040506dc        0x8 arch/arm/cpu/armv7/start.o
 .rel.text.crc7
                0x00000000        0x0 arch/arm/cpu/armv7/start.o
 .rel.text.display_options
                0x00000000        0x0 arch/arm/cpu/armv7/start.o
 .rel.text.print_size
                0x040506e4       0x28 arch/arm/cpu/armv7/start.o
 .rel.text.print_buffer
                0x0405070c       0x28 arch/arm/cpu/armv7/start.o
 .rel.text.zunzip
                0x04050734       0x28 arch/arm/cpu/armv7/start.o
 .rel.text.gunzip
                0x0405075c       0x10 arch/arm/cpu/armv7/start.o
 .rel.text.hang
                0x0405076c        0x8 arch/arm/cpu/armv7/start.o
 .rel.text.match_string.isra.3
                0x04050774        0x8 arch/arm/cpu/armv7/start.o
 .rel.text.hcreate_r
                0x0405077c        0x8 arch/arm/cpu/armv7/start.o
 .rel.text.hdestroy_r
                0x04050784        0x8 arch/arm/cpu/armv7/start.o
 .rel.text.hmatch_r
                0x0405078c        0x8 arch/arm/cpu/armv7/start.o
 .rel.text.hsearch_r
                0x04050794        0x8 arch/arm/cpu/armv7/start.o
 .rel.text.hdelete_r
                0x0405079c        0x8 arch/arm/cpu/armv7/start.o
 .rel.text.hexport_r
                0x040507a4       0x18 arch/arm/cpu/armv7/start.o
 .rel.text.himport_r
                0x040507bc       0x20 arch/arm/cpu/armv7/start.o
 .rel.text.skip_spaces
                0x040507dc        0x8 arch/arm/cpu/armv7/start.o
 .rel.text.strim
                0x040507e4        0x8 arch/arm/cpu/armv7/start.o
 .rel.text.lmb_alloc_base
                0x040507ec        0x8 arch/arm/cpu/armv7/start.o
 .rel.text.sha1_finish
                0x040507f4        0x8 arch/arm/cpu/armv7/start.o
 .rel.text.strncasecmp
                0x00000000        0x0 arch/arm/cpu/armv7/start.o
 .rel.text.strtok
                0x040507fc        0x8 arch/arm/cpu/armv7/start.o
 .rel.text.strmhz
                0x00000000        0x0 arch/arm/cpu/armv7/start.o
 .rel.text.string.isra.0
                0x04050804        0x8 arch/arm/cpu/armv7/start.o
 .rel.text.number.isra.4
                0x0405080c        0x8 arch/arm/cpu/armv7/start.o
 .rel.text.vsnprintf_internal.isra.6
                0x04050814       0x10 arch/arm/cpu/armv7/start.o
 .rel.text.simple_strtoul
                0x04050824        0x8 arch/arm/cpu/armv7/start.o
 .rel.text.simple_strtoull
                0x0405082c        0x8 arch/arm/cpu/armv7/start.o
 .rel.text.__assert_fail
                0x00000000        0x0 arch/arm/cpu/armv7/start.o
 .rel.text.simple_itoa
                0x04050834        0x8 arch/arm/cpu/armv7/start.o
 .rel.text.print_grouped_ull
                0x00000000        0x0 arch/arm/cpu/armv7/start.o
 .rel.text.inflate_fast
                0x0405083c       0x18 arch/arm/cpu/armv7/start.o
 .rel.text.inflate_table
                0x04050854       0x20 arch/arm/cpu/armv7/start.o
 .rel.text.inflateInit2_
                0x04050874       0x10 arch/arm/cpu/armv7/start.o
 .rel.text.inflate
                0x04050884      0x188 arch/arm/cpu/armv7/start.o
 .rel.rodata.z_errmsg
                0x00000000        0x0 arch/arm/cpu/armv7/start.o
 .rel.text.fdt_next_tag
                0x04050a0c       0x48 arch/arm/cpu/armv7/start.o
 .rel.text.fdt_create_empty_tree
                0x00000000        0x0 arch/arm/cpu/armv7/start.o
 .rel.text.fdt_get_phandle
                0x00000000        0x0 arch/arm/cpu/armv7/start.o
 .rel.text.fdt_get_alias_namelen
                0x04050a54        0x8 arch/arm/cpu/armv7/start.o
 .rel.text.fdt_node_check_compatible
                0x00000000        0x0 arch/arm/cpu/armv7/start.o
 .rel.text.fdt_strerror
                0x04050a5c       0x20 arch/arm/cpu/armv7/start.o
 .rel.text.fdt_find_regions
                0x00000000        0x0 arch/arm/cpu/armv7/start.o
 .rel.rodata.fdt_errtable
                0x04050a7c       0x58 arch/arm/cpu/armv7/start.o
 .rel.text.ArpInit
                0x04050ad4       0x30 arch/arm/cpu/armv7/start.o
 .rel.text.arp_raw_request
                0x04050b04       0x18 arch/arm/cpu/armv7/start.o
 .rel.text.ArpRequest
                0x04050b1c       0x38 arch/arm/cpu/armv7/start.o
 .rel.text.ArpTimeoutCheck
                0x04050b54       0x20 arch/arm/cpu/armv7/start.o
 .rel.text.ArpReceive
                0x04050b74       0x40 arch/arm/cpu/armv7/start.o
 .rel.text.DhcpOptionsProcess
                0x04050bb4       0x68 arch/arm/cpu/armv7/start.o
 .rel.text.DhcpHandler
                0x04050c1c       0x78 arch/arm/cpu/armv7/start.o
 .rel.text.BootpRequest
                0x04050c94       0x50 arch/arm/cpu/armv7/start.o
 .rel.text.BootpTimeout
                0x04050ce4       0x20 arch/arm/cpu/armv7/start.o
 .rel.text.eth_save_packet
                0x04050d04       0x18 arch/arm/cpu/armv7/start.o
 .rel.text.eth_current_changed
                0x04050d1c       0x10 arch/arm/cpu/armv7/start.o
 .rel.text.eth_setenv_enetaddr
                0x04050d2c        0x8 arch/arm/cpu/armv7/start.o
 .rel.text.eth_getenv_enetaddr_by_index
                0x04050d34       0x10 arch/arm/cpu/armv7/start.o
 .rel.text.eth_get_dev_by_name
                0x00000000        0x0 arch/arm/cpu/armv7/start.o
 .rel.text.eth_get_dev_by_index
                0x04050d44        0x8 arch/arm/cpu/armv7/start.o
 .rel.text.eth_get_dev_index
                0x04050d4c        0x8 arch/arm/cpu/armv7/start.o
 .rel.text.eth_write_hwaddr
                0x04050d54       0x48 arch/arm/cpu/armv7/start.o
 .rel.text.eth_register
                0x04050d9c       0x18 arch/arm/cpu/armv7/start.o
 .rel.text.eth_unregister
                0x00000000        0x0 arch/arm/cpu/armv7/start.o
 .rel.text.eth_initialize
                0x04050db4       0x90 arch/arm/cpu/armv7/start.o
 .rel.text.eth_halt
                0x04050e44        0x8 arch/arm/cpu/armv7/start.o
 .rel.text.eth_send
                0x04050e4c        0x8 arch/arm/cpu/armv7/start.o
 .rel.text.eth_rx
                0x04050e54        0x8 arch/arm/cpu/armv7/start.o
 .rel.text.eth_receive
                0x04050e5c       0x28 arch/arm/cpu/armv7/start.o
 .rel.text.eth_try_another
                0x04050e84       0x28 arch/arm/cpu/armv7/start.o
 .rel.text.eth_init
                0x04050eac       0x20 arch/arm/cpu/armv7/start.o
 .rel.text.eth_set_current
                0x04050ecc       0x20 arch/arm/cpu/armv7/start.o
 .rel.text.eth_get_name
                0x04050eec       0x10 arch/arm/cpu/armv7/start.o
 .rel.text.startAgainTimeout
                0x04050efc        0x8 arch/arm/cpu/armv7/start.o
 .rel.text.net_clear_handlers
                0x04050f04       0x20 arch/arm/cpu/armv7/start.o
 .rel.text.net_auto_load
                0x04050f24       0x18 arch/arm/cpu/armv7/start.o
 .rel.text.NetStartAgain
                0x04050f3c       0x78 arch/arm/cpu/armv7/start.o
 .rel.text.net_get_udp_handler
                0x00000000        0x0 arch/arm/cpu/armv7/start.o
 .rel.text.net_set_udp_handler
                0x04050fb4       0x10 arch/arm/cpu/armv7/start.o
 .rel.text.net_get_arp_handler
                0x04050fc4        0x8 arch/arm/cpu/armv7/start.o
 .rel.text.net_set_arp_handler
                0x00000000        0x0 arch/arm/cpu/armv7/start.o
 .rel.text.net_set_icmp_handler
                0x04050fcc        0x8 arch/arm/cpu/armv7/start.o
 .rel.text.NetSetTimeout
                0x04050fd4       0x18 arch/arm/cpu/armv7/start.o
 .rel.text.NetReceive
                0x04050fec       0x48 arch/arm/cpu/armv7/start.o
 .rel.text.NetEthHdrSize
                0x04051034        0x8 arch/arm/cpu/armv7/start.o
 .rel.text.NetSetEther
                0x0405103c       0x10 arch/arm/cpu/armv7/start.o
 .rel.text.net_update_ether
                0x0405104c        0x8 arch/arm/cpu/armv7/start.o
 .rel.text.net_set_ip_header
                0x04051054        0x8 arch/arm/cpu/armv7/start.o
 .rel.text.net_set_udp_header
                0x0405105c        0x8 arch/arm/cpu/armv7/start.o
 .rel.text.NetSendUDPPacket
                0x04051064       0x40 arch/arm/cpu/armv7/start.o
 .rel.text.on_bootfile
                0x040510a4        0x8 arch/arm/cpu/armv7/start.o
 .rel.text.ip_to_string
                0x040510ac        0x8 arch/arm/cpu/armv7/start.o
 .rel.text.VLAN_to_string
                0x00000000        0x0 arch/arm/cpu/armv7/start.o
 .rel.text.NetInitLoop
                0x040510b4       0x78 arch/arm/cpu/armv7/start.o
 .rel.text.net_init
                0x0405112c       0x20 arch/arm/cpu/armv7/start.o
 .rel.text.NetLoop
                0x0405114c      0x1c8 arch/arm/cpu/armv7/start.o
 .rel.text.rpc_lookup_reply
                0x04051314       0x18 arch/arm/cpu/armv7/start.o
 .rel.text.nfs_mount_reply
                0x0405132c       0x18 arch/arm/cpu/armv7/start.o
 .rel.text.nfs_umountall_reply
                0x04051344       0x18 arch/arm/cpu/armv7/start.o
 .rel.text.nfs_lookup_reply
                0x0405135c       0x10 arch/arm/cpu/armv7/start.o
 .rel.text.nfs_readlink_reply
                0x0405136c       0x18 arch/arm/cpu/armv7/start.o
 .rel.text.rpc_add_credentials
                0x04051384        0x8 arch/arm/cpu/armv7/start.o
 .rel.text.rpc_req
                0x0405138c       0x38 arch/arm/cpu/armv7/start.o
 .rel.text.nfs_umountall_req
                0x040513c4       0x10 arch/arm/cpu/armv7/start.o
 .rel.text.nfs_lookup_req
                0x040513d4        0x8 arch/arm/cpu/armv7/start.o
 .rel.text.nfs_read_req
                0x040513dc        0x8 arch/arm/cpu/armv7/start.o
 .rel.text.nfs_readlink_req
                0x040513e4        0x8 arch/arm/cpu/armv7/start.o
 .rel.text.nfs_read_reply.isra.0
                0x040513ec       0x28 arch/arm/cpu/armv7/start.o
 .rel.text.NfsSend
                0x04051414       0x60 arch/arm/cpu/armv7/start.o
 .rel.text.NfsHandler
                0x04051474       0xa8 arch/arm/cpu/armv7/start.o
 .rel.text.NfsTimeout
                0x0405151c       0x20 arch/arm/cpu/armv7/start.o
 .rel.text.NfsStart
                0x0405153c       0xe0 arch/arm/cpu/armv7/start.o
 .rel.text.ping_timeout
                0x0405161c        0x8 arch/arm/cpu/armv7/start.o
 .rel.text.ping_start
                0x04051624       0x58 arch/arm/cpu/armv7/start.o
 .rel.text.ping_receive
                0x0405167c       0x18 arch/arm/cpu/armv7/start.o
 .rel.text.tftp_complete
                0x04051694       0x30 arch/arm/cpu/armv7/start.o
 .rel.text.TftpSend
                0x040516c4       0xe8 arch/arm/cpu/armv7/start.o
 .rel.text.update_block_number
                0x040517ac       0x38 arch/arm/cpu/armv7/start.o
 .rel.text.TftpHandler
                0x040517e4       0xc8 arch/arm/cpu/armv7/start.o
 .rel.text.TftpTimeout
                0x040518ac       0x40 arch/arm/cpu/armv7/start.o
 .rel.text.icmp_handler
                0x040518ec       0x10 arch/arm/cpu/armv7/start.o
 .rel.text.TftpStart
                0x040518fc      0x198 arch/arm/cpu/armv7/start.o
 .rel.u_boot_list_2_env_clbk_2_bootfile
                0x04051a94       0x10 arch/arm/cpu/armv7/start.o
 .rel.text.raise
                0x04051aa4        0x8 arch/arm/cpu/armv7/start.o

.rel_dyn_end    0x04051aac        0x0
 *(.__rel_dyn_end)
 .__rel_dyn_end
                0x04051aac        0x0 arch/arm/lib/built-in.o
                0x04051aac                _end = .
                0x04052000                . = ALIGN (0x1000)

.mmutable
 *(.mmutable)

.bss_start      0x040498f4        0x0
 *(.__bss_start)
 .__bss_start   0x040498f4        0x0 arch/arm/lib/built-in.o
                0x040498f4                __bss_start
                0x040498f4                __bss_base = .

.bss            0x040498f4    0x54c24
 *(.bss*)
 .bss.calls_no  0x040498f4        0x4 api/built-in.o
 .bss.calls_table
                0x040498f8       0x50 api/built-in.o
 .bss.clks      0x04049948      0x540 arch/arm/cpu/armv7/zynq/built-in.o
 .bss.monitor_flash_len
                0x04049e88        0x4 arch/arm/lib/built-in.o
                0x04049e88                monitor_flash_len
 .bss.fpga      0x04049e8c       0x18 board/xilinx/zynq/built-in.o
                0x04049e8c                fpga
 .bss.images    0x04049ea4      0x158 common/built-in.o
                0x04049ea4                images
 .bss.data.6902
                0x04049ffc      0x400 common/built-in.o
 .bss.working_fdt
                0x0404a3fc        0x4 common/built-in.o
                0x0404a3fc                working_fdt
 .bss.i2c_mm_last_addr
                0x0404a400        0x4 common/built-in.o
 .bss.i2c_mm_last_chip
                0x0404a404        0x1 common/built-in.o
 *fill*         0x0404a405        0x3 
 .bss.i2c_mm_last_alen
                0x0404a408        0x4 common/built-in.o
 .bss.i2c_dp_last_chip
                0x0404a40c        0x1 common/built-in.o
 *fill*         0x0404a40d        0x3 
 .bss.i2c_dp_last_addr
                0x0404a410        0x4 common/built-in.o
 .bss.i2c_dp_last_alen
                0x0404a414        0x4 common/built-in.o
 .bss.send_parms
                0x0404a418       0x14 common/built-in.o
 .bss.os_data_init
                0x0404a42c        0x4 common/built-in.o
 .bss.os_data_addr_saved
                0x0404a430        0x4 common/built-in.o
 .bss.his_pad_char
                0x0404a434        0x1 common/built-in.o
 .bss.a_b       0x0404a435       0x18 common/built-in.o
 *fill*         0x0404a44d        0x3 
 .bss.os_data_char
                0x0404a450        0x4 common/built-in.o
 .bss.os_data_state
                0x0404a454        0x4 common/built-in.o
 .bss.k_data_escape
                0x0404a458        0x4 common/built-in.o
 .bss.os_data_state_saved
                0x0404a45c        0x4 common/built-in.o
 .bss.os_data_addr
                0x0404a460        0x4 common/built-in.o
 .bss.send_ptr  0x0404a464        0x4 common/built-in.o
 .bss.bin_start_address
                0x0404a468        0x4 common/built-in.o
 .bss.his_quote
                0x0404a46c        0x1 common/built-in.o
 *fill*         0x0404a46d        0x3 
 .bss.his_pad_count
                0x0404a470        0x4 common/built-in.o
 .bss.his_eol   0x0404a474        0x1 common/built-in.o
 *fill*         0x0404a475        0x3 
 .bss.k_data_escape_saved
                0x0404a478        0x4 common/built-in.o
 .bss.last_reg_hi
                0x0404a47c        0x8 common/built-in.o
 .bss.last_data
                0x0404a484        0x8 common/built-in.o
 .bss.last_devad_hi
                0x0404a48c        0x4 common/built-in.o
 .bss.last_reg_lo
                0x0404a490        0x8 common/built-in.o
 .bss.last_addr_lo
                0x0404a498        0x8 common/built-in.o
 .bss.last_op   0x0404a4a0        0x4 common/built-in.o
 .bss.last_addr_hi
                0x0404a4a4        0x8 common/built-in.o
 .bss.last_devad_lo
                0x0404a4ac        0x4 common/built-in.o
 .bss.dp_last_addr
                0x0404a4b0        0x4 common/built-in.o
 .bss.base_address
                0x0404a4b4        0x4 common/built-in.o
 .bss.mm_last_size
                0x0404a4b8        0x4 common/built-in.o
 .bss.mm_last_addr
                0x0404a4bc        0x4 common/built-in.o
 .bss.dp_last_size
                0x0404a4c0        0x4 common/built-in.o
 .bss.flash     0x0404a4c4        0x4 common/built-in.o
 .bss.bus       0x0404a4c8        0x4 common/built-in.o
 .bss.cs        0x0404a4cc        0x4 common/built-in.o
 .bss.bitlen    0x0404a4d0        0x4 common/built-in.o
 .bss.dout      0x0404a4d4       0x20 common/built-in.o
 .bss.din       0x0404a4f4       0x20 common/built-in.o
 .bss.mode      0x0404a514        0x4 common/built-in.o
 .bss.__compound_literal.1
                0x0404a518        0x4 common/built-in.o
 .bss.tmp_buf   0x0404a51c      0x800 common/built-in.o
 .bss.tmp_buf.6819
                0x0404ad1c      0x200 common/built-in.o
 .bss.ctrlc_was_pressed
                0x0404af1c        0x4 common/built-in.o
 .bss.ctrlc_disabled
                0x0404af20        0x4 common/built-in.o
 .bss.max_total_mem
                0x0404af24        0x4 common/built-in.o
 .bss.mem_malloc_brk
                0x0404af28        0x4 common/built-in.o
                0x0404af28                mem_malloc_brk
 .bss.max_sbrked_mem
                0x0404af2c        0x4 common/built-in.o
 .bss.current_mallinfo
                0x0404af30       0x28 common/built-in.o
 .bss.mem_malloc_end
                0x0404af58        0x4 common/built-in.o
                0x0404af58                mem_malloc_end
 .bss.top_pad   0x0404af5c        0x4 common/built-in.o
 .bss.mem_malloc_start
                0x0404af60        0x4 common/built-in.o
                0x0404af60                mem_malloc_start
 .bss.callback_list
                0x0404af64        0x4 common/built-in.o
 .bss.flags_list
                0x0404af68        0x4 common/built-in.o
 .bss.env_flash
                0x0404af6c        0x4 common/built-in.o
 .bss.flag_repeat
                0x0404af70        0x4 common/built-in.o
 .bss.the_command.7009
                0x0404af74      0x800 common/built-in.o
 .bss.buf.7209  0x0404b774       0x28 common/built-in.o
 .bss.ifs       0x0404b79c        0x4 common/built-in.o
 .bss.last_return_code
                0x0404b7a0        0x4 common/built-in.o
 .bss.map       0x0404b7a4      0x100 common/built-in.o
 .bss.do_repeat
                0x0404b8a4        0x4 common/built-in.o
 .bss.top_vars  0x0404b8a8        0x4 common/built-in.o
 .bss.save_addr
                0x0404b8ac        0x4 common/built-in.o
                0x0404b8ac                save_addr
 .bss.load_addr
                0x0404b8b0        0x4 common/built-in.o
                0x0404b8b0                load_addr
 .bss.save_size
                0x0404b8b4        0x4 common/built-in.o
                0x0404b8b4                save_size
 .bss.hist_list
                0x0404b8b8       0x50 common/built-in.o
 .bss.hist_lines
                0x0404b908     0xa014 common/built-in.o
 .bss.initted.7294
                0x0405591c        0x4 common/built-in.o
 .bss.hist_add_idx
                0x04055920        0x4 common/built-in.o
 .bss.hist_num  0x04055924        0x4 common/built-in.o
 .bss.hist_max  0x04055928        0x4 common/built-in.o
 .bss.console_buffer
                0x0405592c      0x801 common/built-in.o
                0x0405592c                console_buffer
 *fill*         0x0405612d        0x3 
 .bss.current_mii
                0x04056130        0x4 common/built-in.o
 .bss.mii_devs  0x04056134        0x8 common/built-in.o
 .bss.devs      0x0405613c       0x3c common/built-in.o
 .bss.stdio_devices
                0x04056178        0xc common/built-in.o
                0x04056178                stdio_devices
 .bss.dev_index
                0x04056184        0x4 common/built-in.o
 *fill*         0x04056188       0x18 
 .bss.usb_dev   0x040561a0    0x12c00 common/built-in.o
 .bss.asynch_allowed
                0x04068da0        0x4 common/built-in.o
 .bss.usb_started
                0x04068da4        0x1 common/built-in.o
                0x04068da4                usb_started
 *fill*         0x04068da5        0x3 
 .bss.usb_hub_index
                0x04068da8        0x4 common/built-in.o
 .bss.hub_dev   0x04068dac      0x100 common/built-in.o
 .bss.usb_stor  0x04068eac      0x104 common/built-in.o
 .bss.usb_dev_desc
                0x04068fb0      0x244 common/built-in.o
 .bss.usb_max_devs
                0x040691f4        0x4 common/built-in.o
 .bss.CBWTag    0x040691f8        0x4 common/built-in.o
 *fill*         0x040691fc        0x4 
 .bss.usb_ccb   0x04069200       0xa0 common/built-in.o
 .bss.xyz       0x040692a0      0x434 common/built-in.o
 .bss.desc_table
                0x040696d4       0x28 drivers/built-in.o
 .bss.mmc_devices
                0x040696fc        0x8 drivers/mmc/built-in.o
 .bss.aligned_buffer
                0x04069704        0x4 drivers/mmc/built-in.o
                0x04069704                aligned_buffer
 .bss.serial_devices
                0x04069708        0x4 drivers/serial/built-in.o
 .bss.serial_current
                0x0406970c        0x4 drivers/serial/built-in.o
 .bss.current_u_page.9012
                0x04069710        0x1 drivers/spi/built-in.o
 *fill*         0x04069711        0x3 
 .bss.periodic_schedules
                0x04069714        0x4 drivers/usb/host/built-in.o
 *fill*         0x04069718        0x8 
 .bss.ehcic     0x04069720      0x200 drivers/usb/host/built-in.o
 .bss.part_info
                0x04069920        0x4 fs/built-in.o
 .bss.ext4fs_block_dev_desc
                0x04069924        0x4 fs/built-in.o
 .bss.part_offset
                0x04069928        0x4 fs/built-in.o
                0x04069928                part_offset
 .bss.ext4fs_file
                0x0406992c        0x4 fs/built-in.o
                0x0406992c                ext4fs_file
 .bss.ext4fs_indir3_block
                0x04069930        0x4 fs/built-in.o
                0x04069930                ext4fs_indir3_block
 .bss.ext4fs_root
                0x04069934        0x4 fs/built-in.o
                0x04069934                ext4fs_root
 .bss.ext4fs_indir3_size
                0x04069938        0x4 fs/built-in.o
                0x04069938                ext4fs_indir3_size
 .bss.ext4fs_indir1_block
                0x0406993c        0x4 fs/built-in.o
                0x0406993c                ext4fs_indir1_block
 .bss.ext4fs_indir2_size
                0x04069940        0x4 fs/built-in.o
                0x04069940                ext4fs_indir2_size
 .bss.ext4fs_indir2_block
                0x04069944        0x4 fs/built-in.o
                0x04069944                ext4fs_indir2_block
 .bss.ext4fs_indir1_size
                0x04069948        0x4 fs/built-in.o
                0x04069948                ext4fs_indir1_size
 .bss.symlinknest
                0x0406994c        0x4 fs/built-in.o
 .bss.g_parent_inode
                0x04069950        0x4 fs/built-in.o
                0x04069950                g_parent_inode
 .bss.journal_ptr
                0x04069954      0x190 fs/built-in.o
                0x04069954                journal_ptr
 .bss.revk_blk_list
                0x04069ae4        0x4 fs/built-in.o
 .bss.gindex    0x04069ae8        0x4 fs/built-in.o
                0x04069ae8                gindex
 .bss.gd_index  0x04069aec        0x4 fs/built-in.o
                0x04069aec                gd_index
 .bss.dirty_block_ptr
                0x04069af0      0x190 fs/built-in.o
                0x04069af0                dirty_block_ptr
 .bss.prev_node
                0x04069c80        0x4 fs/built-in.o
 .bss.jrnl_blk_idx
                0x04069c84        0x4 fs/built-in.o
                0x04069c84                jrnl_blk_idx
 .bss.ext_fs    0x04069c88       0x48 fs/built-in.o
                0x04069c88                ext_fs
 *fill*         0x04069cd0       0x10 
 .bss.get_contents_vfatname_block
                0x04069ce0    0x10000 fs/built-in.o
                0x04069ce0                get_contents_vfatname_block
 .bss.do_fat_read_at_block
                0x04079ce0    0x10000 fs/built-in.o
                0x04079ce0                do_fat_read_at_block
 .bss.get_dentfromdir_block
                0x04089ce0    0x10000 fs/built-in.o
                0x04089ce0                get_dentfromdir_block
 .bss.empty_dentptr
                0x04099ce0        0x4 fs/built-in.o
 .bss.cur_part_info
                0x04099ce4       0x50 fs/built-in.o
 .bss.total_sector
                0x04099d34        0x4 fs/built-in.o
 .bss.dir_curclust
                0x04099d38        0x4 fs/built-in.o
 .bss.num_of_fats
                0x04099d3c        0x1 fs/built-in.o
 *fill*         0x04099d3d        0x3 
 .bss.cur_dev   0x04099d40        0x4 fs/built-in.o
 .bss.fs_partition
                0x04099d44       0x50 fs/built-in.o
 .bss.fs_type   0x04099d94        0x4 fs/built-in.o
 .bss.fs_dev_desc
                0x04099d98        0x4 fs/built-in.o
 .bss.errno     0x04099d9c        0x4 lib/built-in.o
                0x04099d9c                errno
 .bss.___strtok
                0x04099da0        0x4 lib/built-in.o
                0x04099da0                ___strtok
 .bss.local.7039
                0x04099da4       0x16 lib/built-in.o
 *fill*         0x04099dba        0x2 
 .bss.NetArpWaitPacketIP
                0x04099dbc        0x4 net/built-in.o
                0x04099dbc                NetArpWaitPacketIP
 .bss.NetArpWaitTimerStart
                0x04099dc0        0x4 net/built-in.o
                0x04099dc0                NetArpWaitTimerStart
 .bss.NetArpWaitReplyIP
                0x04099dc4        0x4 net/built-in.o
 .bss.NetArpWaitTxPacketSize
                0x04099dc8        0x4 net/built-in.o
                0x04099dc8                NetArpWaitTxPacketSize
 .bss.NetArpWaitTry
                0x04099dcc        0x4 net/built-in.o
                0x04099dcc                NetArpWaitTry
 .bss.NetArpTxPacket
                0x04099dd0        0x4 net/built-in.o
 .bss.NetArpPacketBuf
                0x04099dd4      0x620 net/built-in.o
 .bss.NetArpWaitPacketMAC
                0x0409a3f4        0x4 net/built-in.o
                0x0409a3f4                NetArpWaitPacketMAC
 .bss.dhcp_state
                0x0409a3f8        0x4 net/built-in.o
 .bss.BootpTry  0x0409a3fc        0x4 net/built-in.o
                0x0409a3fc                BootpTry
 .bss.NetDHCPServerIP
                0x0409a400        0x4 net/built-in.o
 .bss.BootpID   0x0409a404        0x4 net/built-in.o
                0x0409a404                BootpID
 .bss.dhcp_leasetime
                0x0409a408        0x4 net/built-in.o
 .bss.act.7481  0x0409a40c        0x4 net/built-in.o
 .bss.first_failed.7476
                0x0409a410        0x4 net/built-in.o
 .bss.eth_rcv_bufs
                0x0409a414     0x17d0 net/built-in.o
 .bss.eth_current
                0x0409bbe4        0x4 net/built-in.o
                0x0409bbe4                eth_current
 .bss.eth_rcv_current
                0x0409bbe8        0x4 net/built-in.o
 .bss.eth_rcv_last
                0x0409bbec        0x4 net/built-in.o
 .bss.eth_devices
                0x0409bbf0        0x4 net/built-in.o
 .bss.env_changed_id.7482
                0x0409bbf4        0x4 net/built-in.o
 .bss.index.7407
                0x0409bbf8        0x4 net/built-in.o
 .bss.NetOurEther
                0x0409bbfc        0x6 net/built-in.o
                0x0409bbfc                NetOurEther
 *fill*         0x0409bc02        0x2 
 .bss.NetServerIP
                0x0409bc04        0x4 net/built-in.o
                0x0409bc04                NetServerIP
 .bss.NetRestarted
                0x0409bc08        0x4 net/built-in.o
 .bss.net_state
                0x0409bc0c        0x4 net/built-in.o
                0x0409bc0c                net_state
 .bss.NetRxPackets
                0x0409bc10       0x10 net/built-in.o
                0x0409bc10                NetRxPackets
 .bss.NetBootFileSize
                0x0409bc20        0x2 net/built-in.o
                0x0409bc20                NetBootFileSize
 .bss.NetEtherNullAddr
                0x0409bc22        0x6 net/built-in.o
                0x0409bc22                NetEtherNullAddr
 .bss.env_changed_id.7032
                0x0409bc28        0x4 net/built-in.o
 .bss.NetRxPacket
                0x0409bc2c        0x4 net/built-in.o
                0x0409bc2c                NetRxPacket
 .bss.udp_packet_handler
                0x0409bc30        0x4 net/built-in.o
 .bss.NetDevExists
                0x0409bc34        0x4 net/built-in.o
 .bss.timeStart
                0x0409bc38        0x4 net/built-in.o
 .bss.timeHandler
                0x0409bc3c        0x4 net/built-in.o
 .bss.NetTryCount
                0x0409bc40        0x4 net/built-in.o
 .bss.PktBuf    0x0409bc44     0x1e20 net/built-in.o
 .bss.NetOurSubnetMask
                0x0409da64        0x4 net/built-in.o
                0x0409da64                NetOurSubnetMask
 .bss.NetTxPacket
                0x0409da68        0x4 net/built-in.o
                0x0409da68                NetTxPacket
 .bss.NetBootFileXferSize
                0x0409da6c        0x4 net/built-in.o
                0x0409da6c                NetBootFileXferSize
 .bss.NetOurIP  0x0409da70        0x4 net/built-in.o
                0x0409da70                NetOurIP
 .bss.NetOurDNSIP
                0x0409da74        0x4 net/built-in.o
                0x0409da74                NetOurDNSIP
 .bss.NetOurNISDomain
                0x0409da78       0x20 net/built-in.o
                0x0409da78                NetOurNISDomain
 .bss.NetIPID   0x0409da98        0x4 net/built-in.o
                0x0409da98                NetIPID
 .bss.NetOurGatewayIP
                0x0409da9c        0x4 net/built-in.o
                0x0409da9c                NetOurGatewayIP
 .bss.arp_packet_handler
                0x0409daa0        0x4 net/built-in.o
 .bss.NetOurHostName
                0x0409daa4       0x20 net/built-in.o
                0x0409daa4                NetOurHostName
 .bss.packet_icmp_handler
                0x0409dac4        0x4 net/built-in.o
 .bss.NetRestartWrap
                0x0409dac8        0x4 net/built-in.o
                0x0409dac8                NetRestartWrap
 .bss.NetRxPacketLen
                0x0409dacc        0x4 net/built-in.o
                0x0409dacc                NetRxPacketLen
 .bss.BootFile  0x0409dad0       0x80 net/built-in.o
                0x0409dad0                BootFile
 .bss.timeDelta
                0x0409db50        0x4 net/built-in.o
 .bss.NetServerEther
                0x0409db54        0x6 net/built-in.o
                0x0409db54                NetServerEther
 *fill*         0x0409db5a        0x2 
 .bss.push_packet
                0x0409db5c        0x4 net/built-in.o
                0x0409db5c                push_packet
 .bss.NetOurRootPath
                0x0409db60       0x40 net/built-in.o
                0x0409db60                NetOurRootPath
 .bss.NfsOurPort
                0x0409dba0        0x4 net/built-in.o
 .bss.NfsServerIP
                0x0409dba4        0x4 net/built-in.o
 .bss.nfs_filename
                0x0409dba8        0x4 net/built-in.o
 .bss.nfs_len   0x0409dbac        0x4 net/built-in.o
 .bss.NfsSrvMountPort
                0x0409dbb0        0x4 net/built-in.o
 .bss.dirfh     0x0409dbb4       0x20 net/built-in.o
 .bss.NfsSrvNfsPort
                0x0409dbd4        0x4 net/built-in.o
 .bss.rpc_id    0x0409dbd8        0x4 net/built-in.o
 .bss.fs_mounted
                0x0409dbdc        0x4 net/built-in.o
 .bss.nfs_path_buff
                0x0409dbe0      0x800 net/built-in.o
 .bss.nfs_download_state
                0x0409e3e0        0x4 net/built-in.o
 .bss.nfs_path  0x0409e3e4        0x4 net/built-in.o
 .bss.filefh    0x0409e3e8       0x20 net/built-in.o
 .bss.NfsState  0x0409e408        0x4 net/built-in.o
 .bss.default_filename
                0x0409e40c       0x4d net/built-in.o
 *fill*         0x0409e459        0x3 
 .bss.NfsTimeoutCount
                0x0409e45c        0x4 net/built-in.o
 .bss.NetPingIP
                0x0409e460        0x4 net/built-in.o
                0x0409e460                NetPingIP
 .bss.PingSeqNo
                0x0409e464        0x2 net/built-in.o
 *fill*         0x0409e466        0x2 
 .bss.TftpTimeoutCount
                0x0409e468        0x4 net/built-in.o
 .bss.TftpRemoteIP
                0x0409e46c        0x4 net/built-in.o
 .bss.time_start
                0x0409e470        0x4 net/built-in.o
 .bss.TftpBlock
                0x0409e474        0x4 net/built-in.o
 .bss.TftpOurPort
                0x0409e478        0x4 net/built-in.o
 .bss.TftpBlockWrap
                0x0409e47c        0x4 net/built-in.o
 .bss.TftpWriting
                0x0409e480        0x4 net/built-in.o
 .bss.TftpState
                0x0409e484        0x4 net/built-in.o
 .bss.TftpRemotePort
                0x0409e488        0x4 net/built-in.o
 .bss.TftpFinalBlock
                0x0409e48c        0x4 net/built-in.o
 .bss.tftp_filename
                0x0409e490       0x80 net/built-in.o
 .bss.TftpBlockWrapOffset
                0x0409e510        0x4 net/built-in.o
 .bss.TftpLastBlock
                0x0409e514        0x4 net/built-in.o
                0x0409e518                . = ALIGN (0x4)
                0x0409e518                __bss_limit = .

.bss_end        0x0409e518        0x0
 *(.__bss_end)
 .__bss_end     0x0409e518        0x0 arch/arm/lib/built-in.o
                0x0409e518                __bss_end

/DISCARD/
 *(.dynsym)
 *(.dynbss*)
 *(.dynstr*)
 *(.dynamic*)
 *(.plt*)
 *(.interp*)
 *(.gnu*)
 *(.ARM.exidx*)
 *(.gnu.linkonce.armexidx.*)
Address of section .text set to 0x4000000
LOAD arch/arm/cpu/armv7/start.o
START GROUP
LOAD api/built-in.o
LOAD arch/arm/cpu/armv7/built-in.o
LOAD arch/arm/cpu/armv7/zynq/built-in.o
LOAD arch/arm/cpu/built-in.o
LOAD arch/arm/lib/built-in.o
LOAD board/xilinx/zynq/built-in.o
LOAD common/built-in.o
LOAD disk/built-in.o
LOAD drivers/built-in.o
LOAD drivers/dma/built-in.o
LOAD drivers/gpio/built-in.o
LOAD drivers/i2c/built-in.o
LOAD drivers/input/built-in.o
LOAD drivers/mmc/built-in.o
LOAD drivers/mtd/built-in.o
LOAD drivers/mtd/onenand/built-in.o
LOAD drivers/mtd/spi/built-in.o
LOAD drivers/net/built-in.o
LOAD drivers/net/phy/built-in.o
LOAD drivers/pci/built-in.o
LOAD drivers/power/battery/built-in.o
LOAD drivers/power/built-in.o
LOAD drivers/power/fuel_gauge/built-in.o
LOAD drivers/power/mfd/built-in.o
LOAD drivers/power/pmic/built-in.o
LOAD drivers/serial/built-in.o
LOAD drivers/spi/built-in.o
LOAD drivers/usb/eth/built-in.o
LOAD drivers/usb/gadget/built-in.o
LOAD drivers/usb/host/built-in.o
LOAD drivers/usb/musb-new/built-in.o
LOAD drivers/usb/musb/built-in.o
LOAD drivers/usb/phy/built-in.o
LOAD drivers/usb/ulpi/built-in.o
LOAD fs/built-in.o
LOAD lib/built-in.o
LOAD lib/libfdt/built-in.o
LOAD net/built-in.o
LOAD test/built-in.o
END GROUP
LOAD /home/ugrads/p/philipsmith/ecen449/lab04/u-boot/arch/arm/lib/eabi_compat.o
LOAD /opt/coe/Xilinx/SDK/2015.2/gnu/arm/lin/bin/../lib/gcc/arm-xilinx-linux-gnueabi/4.9.1/libgcc.a
OUTPUT(u-boot elf32-littlearm)

.ARM.attributes
                0x00000000       0x2f
 .ARM.attributes
                0x00000000       0x21 arch/arm/cpu/armv7/start.o
 .ARM.attributes
                0x00000021       0x2d api/built-in.o
 .ARM.attributes
                0x0000004e       0x2d arch/arm/cpu/armv7/built-in.o
 .ARM.attributes
                0x0000007b       0x2f arch/arm/cpu/armv7/zynq/built-in.o
 .ARM.attributes
                0x000000aa       0x2f arch/arm/lib/built-in.o
 .ARM.attributes
                0x000000d9       0x2d board/xilinx/zynq/built-in.o
 .ARM.attributes
                0x00000106       0x2d common/built-in.o
 .ARM.attributes
                0x00000133       0x2d disk/built-in.o
 .ARM.attributes
                0x00000160       0x2d drivers/built-in.o
 .ARM.attributes
                0x0000018d       0x2d drivers/i2c/built-in.o
 .ARM.attributes
                0x000001ba       0x2d drivers/mmc/built-in.o
 .ARM.attributes
                0x000001e7       0x2d drivers/mtd/spi/built-in.o
 .ARM.attributes
                0x00000214       0x2d drivers/net/built-in.o
 .ARM.attributes
                0x00000241       0x2d drivers/net/phy/built-in.o
 .ARM.attributes
                0x0000026e       0x2d drivers/serial/built-in.o
 .ARM.attributes
                0x0000029b       0x2d drivers/spi/built-in.o
 .ARM.attributes
                0x000002c8       0x2d drivers/usb/host/built-in.o
 .ARM.attributes
                0x000002f5       0x2d drivers/usb/ulpi/built-in.o
 .ARM.attributes
                0x00000322       0x2d fs/built-in.o
 .ARM.attributes
                0x0000034f       0x2d lib/built-in.o
 .ARM.attributes
                0x0000037c       0x2d lib/libfdt/built-in.o
 .ARM.attributes
                0x000003a9       0x2d net/built-in.o
 .ARM.attributes
                0x000003d6       0x2d /home/ugrads/p/philipsmith/ecen449/lab04/u-boot/arch/arm/lib/eabi_compat.o
 .ARM.attributes
                0x00000403       0x25 /opt/coe/Xilinx/SDK/2015.2/gnu/arm/lin/bin/../lib/gcc/arm-xilinx-linux-gnueabi/4.9.1/libgcc.a(_udivsi3.o)
 .ARM.attributes
                0x00000428       0x25 /opt/coe/Xilinx/SDK/2015.2/gnu/arm/lin/bin/../lib/gcc/arm-xilinx-linux-gnueabi/4.9.1/libgcc.a(_divsi3.o)
 .ARM.attributes
                0x0000044d       0x25 /opt/coe/Xilinx/SDK/2015.2/gnu/arm/lin/bin/../lib/gcc/arm-xilinx-linux-gnueabi/4.9.1/libgcc.a(_lshrdi3.o)
 .ARM.attributes
                0x00000472       0x25 /opt/coe/Xilinx/SDK/2015.2/gnu/arm/lin/bin/../lib/gcc/arm-xilinx-linux-gnueabi/4.9.1/libgcc.a(_ashldi3.o)
 .ARM.attributes
                0x00000497       0x25 /opt/coe/Xilinx/SDK/2015.2/gnu/arm/lin/bin/../lib/gcc/arm-xilinx-linux-gnueabi/4.9.1/libgcc.a(_dvmd_lnx.o)

.comment        0x00000000       0x30
 .comment       0x00000000       0x30 api/built-in.o
                                 0xf5 (size before relaxing)
 .comment       0x00000000       0x93 arch/arm/cpu/armv7/built-in.o
 .comment       0x00000000       0xf5 arch/arm/cpu/armv7/zynq/built-in.o
 .comment       0x00000000      0x188 arch/arm/lib/built-in.o
 .comment       0x00000000       0x31 board/xilinx/zynq/built-in.o
 .comment       0x00000000      0xbad common/built-in.o
 .comment       0x00000000       0x62 disk/built-in.o
 .comment       0x00000000      0x126 drivers/built-in.o
 .comment       0x00000000       0x62 drivers/i2c/built-in.o
 .comment       0x00000000       0xc4 drivers/mmc/built-in.o
 .comment       0x00000000       0xc4 drivers/mtd/spi/built-in.o
 .comment       0x00000000       0x31 drivers/net/built-in.o
 .comment       0x00000000       0x62 drivers/net/phy/built-in.o
 .comment       0x00000000       0x62 drivers/serial/built-in.o
 .comment       0x00000000       0x62 drivers/spi/built-in.o
 .comment       0x00000000       0x62 drivers/usb/host/built-in.o
 .comment       0x00000000       0x62 drivers/usb/ulpi/built-in.o
 .comment       0x00000000      0x1b9 fs/built-in.o
 .comment       0x00000000      0x498 lib/built-in.o
 .comment       0x00000000      0x157 lib/libfdt/built-in.o
 .comment       0x00000000      0x157 net/built-in.o
 .comment       0x00000000       0x31 /home/ugrads/p/philipsmith/ecen449/lab04/u-boot/arch/arm/lib/eabi_compat.o

.note.GNU-stack
                0x00000000        0x0
 .note.GNU-stack
                0x00000000        0x0 api/built-in.o
 .note.GNU-stack
                0x00000000        0x0 arch/arm/cpu/armv7/built-in.o
 .note.GNU-stack
                0x00000000        0x0 arch/arm/cpu/armv7/zynq/built-in.o
 .note.GNU-stack
                0x00000000        0x0 arch/arm/lib/built-in.o
 .note.GNU-stack
                0x00000000        0x0 board/xilinx/zynq/built-in.o
 .note.GNU-stack
                0x00000000        0x0 common/built-in.o
 .note.GNU-stack
                0x00000000        0x0 disk/built-in.o
 .note.GNU-stack
                0x00000000        0x0 drivers/built-in.o
 .note.GNU-stack
                0x00000000        0x0 drivers/i2c/built-in.o
 .note.GNU-stack
                0x00000000        0x0 drivers/mmc/built-in.o
 .note.GNU-stack
                0x00000000        0x0 drivers/mtd/spi/built-in.o
 .note.GNU-stack
                0x00000000        0x0 drivers/net/built-in.o
 .note.GNU-stack
                0x00000000        0x0 drivers/net/phy/built-in.o
 .note.GNU-stack
                0x00000000        0x0 drivers/serial/built-in.o
 .note.GNU-stack
                0x00000000        0x0 drivers/spi/built-in.o
 .note.GNU-stack
                0x00000000        0x0 drivers/usb/host/built-in.o
 .note.GNU-stack
                0x00000000        0x0 drivers/usb/ulpi/built-in.o
 .note.GNU-stack
                0x00000000        0x0 fs/built-in.o
 .note.GNU-stack
                0x00000000        0x0 lib/built-in.o
 .note.GNU-stack
                0x00000000        0x0 lib/libfdt/built-in.o
 .note.GNU-stack
                0x00000000        0x0 net/built-in.o
 .note.GNU-stack
                0x00000000        0x0 /home/ugrads/p/philipsmith/ecen449/lab04/u-boot/arch/arm/lib/eabi_compat.o
 .note.GNU-stack
                0x00000000        0x0 /opt/coe/Xilinx/SDK/2015.2/gnu/arm/lin/bin/../lib/gcc/arm-xilinx-linux-gnueabi/4.9.1/libgcc.a(_udivsi3.o)
 .note.GNU-stack
                0x00000000        0x0 /opt/coe/Xilinx/SDK/2015.2/gnu/arm/lin/bin/../lib/gcc/arm-xilinx-linux-gnueabi/4.9.1/libgcc.a(_divsi3.o)
 .note.GNU-stack
                0x00000000        0x0 /opt/coe/Xilinx/SDK/2015.2/gnu/arm/lin/bin/../lib/gcc/arm-xilinx-linux-gnueabi/4.9.1/libgcc.a(_lshrdi3.o)
 .note.GNU-stack
                0x00000000        0x0 /opt/coe/Xilinx/SDK/2015.2/gnu/arm/lin/bin/../lib/gcc/arm-xilinx-linux-gnueabi/4.9.1/libgcc.a(_ashldi3.o)
 .note.GNU-stack
                0x00000000        0x0 /opt/coe/Xilinx/SDK/2015.2/gnu/arm/lin/bin/../lib/gcc/arm-xilinx-linux-gnueabi/4.9.1/libgcc.a(_dvmd_lnx.o)

.debug_line     0x00000000    0x1eca0
 .debug_line    0x00000000       0x9a arch/arm/cpu/armv7/start.o
 .debug_line    0x0000009a      0xcbd api/built-in.o
 .debug_line    0x00000d57      0x54a arch/arm/cpu/armv7/built-in.o
 .debug_line    0x000012a1      0xd49 arch/arm/cpu/armv7/zynq/built-in.o
 .debug_line    0x00001fea     0x118f arch/arm/lib/built-in.o
 .debug_line    0x00003179      0x27e board/xilinx/zynq/built-in.o
 .debug_line    0x000033f7     0xc2a5 common/built-in.o
 .debug_line    0x0000f69c      0x6ce disk/built-in.o
 .debug_line    0x0000fd6a      0xbe3 drivers/built-in.o
 .debug_line    0x0001094d      0x4e0 drivers/i2c/built-in.o
 .debug_line    0x00010e2d     0x1098 drivers/mmc/built-in.o
 .debug_line    0x00011ec5      0x928 drivers/mtd/spi/built-in.o
 .debug_line    0x000127ed      0x3c2 drivers/net/built-in.o
 .debug_line    0x00012baf      0x9e7 drivers/net/phy/built-in.o
 .debug_line    0x00013596      0x67e drivers/serial/built-in.o
 .debug_line    0x00013c14      0x598 drivers/spi/built-in.o
 .debug_line    0x000141ac      0x991 drivers/usb/host/built-in.o
 .debug_line    0x00014b3d      0x45d drivers/usb/ulpi/built-in.o
 .debug_line    0x00014f9a     0x2ff8 fs/built-in.o
 .debug_line    0x00017f92     0x3870 lib/built-in.o
 .debug_line    0x0001b802     0x1462 lib/libfdt/built-in.o
 .debug_line    0x0001cc64     0x1ef6 net/built-in.o
 .debug_line    0x0001eb5a      0x146 /home/ugrads/p/philipsmith/ecen449/lab04/u-boot/arch/arm/lib/eabi_compat.o

.debug_info     0x00000000    0x9605d
 .debug_info    0x00000000       0x74 arch/arm/cpu/armv7/start.o
 .debug_info    0x00000074     0x3b23 api/built-in.o
 .debug_info    0x00003b97     0x129e arch/arm/cpu/armv7/built-in.o
 .debug_info    0x00004e35     0x43e3 arch/arm/cpu/armv7/zynq/built-in.o
 .debug_info    0x00009218     0x4543 arch/arm/lib/built-in.o
 .debug_info    0x0000d75b      0x839 board/xilinx/zynq/built-in.o
 .debug_info    0x0000df94    0x40f54 common/built-in.o
 .debug_info    0x0004eee8     0x1f54 disk/built-in.o
 .debug_info    0x00050e3c     0x3811 drivers/built-in.o
 .debug_info    0x0005464d     0x17ea drivers/i2c/built-in.o
 .debug_info    0x00055e37     0x57c5 drivers/mmc/built-in.o
 .debug_info    0x0005b5fc     0x2a0f drivers/mtd/spi/built-in.o
 .debug_info    0x0005e00b     0x176a drivers/net/built-in.o
 .debug_info    0x0005f775     0x41c6 drivers/net/phy/built-in.o
 .debug_info    0x0006393b     0x1821 drivers/serial/built-in.o
 .debug_info    0x0006515c     0x1b9d drivers/spi/built-in.o
 .debug_info    0x00066cf9     0x32c3 drivers/usb/host/built-in.o
 .debug_info    0x00069fbc     0x1334 drivers/usb/ulpi/built-in.o
 .debug_info    0x0006b2f0    0x10c7a fs/built-in.o
 .debug_info    0x0007bf6a     0xa2ac lib/built-in.o
 .debug_info    0x00086216     0x5ad8 lib/libfdt/built-in.o
 .debug_info    0x0008bcee     0xa063 net/built-in.o
 .debug_info    0x00095d51      0x30c /home/ugrads/p/philipsmith/ecen449/lab04/u-boot/arch/arm/lib/eabi_compat.o

.debug_abbrev   0x00000000    0x1bbbe
 .debug_abbrev  0x00000000       0x14 arch/arm/cpu/armv7/start.o
 .debug_abbrev  0x00000014      0xb60 api/built-in.o
 .debug_abbrev  0x00000b74      0x5f0 arch/arm/cpu/armv7/built-in.o
 .debug_abbrev  0x00001164      0xdca arch/arm/cpu/armv7/zynq/built-in.o
 .debug_abbrev  0x00001f2e     0x1194 arch/arm/lib/built-in.o
 .debug_abbrev  0x000030c2      0x218 board/xilinx/zynq/built-in.o
 .debug_abbrev  0x000032da     0xb38b common/built-in.o
 .debug_abbrev  0x0000e665      0x6c6 disk/built-in.o
 .debug_abbrev  0x0000ed2b      0xc31 drivers/built-in.o
 .debug_abbrev  0x0000f95c      0x64d drivers/i2c/built-in.o
 .debug_abbrev  0x0000ffa9      0xfcb drivers/mmc/built-in.o
 .debug_abbrev  0x00010f74      0xa24 drivers/mtd/spi/built-in.o
 .debug_abbrev  0x00011998      0x442 drivers/net/built-in.o
 .debug_abbrev  0x00011dda      0x7f1 drivers/net/phy/built-in.o
 .debug_abbrev  0x000125cb      0x6f3 drivers/serial/built-in.o
 .debug_abbrev  0x00012cbe      0x5a7 drivers/spi/built-in.o
 .debug_abbrev  0x00013265      0x758 drivers/usb/host/built-in.o
 .debug_abbrev  0x000139bd      0x4d4 drivers/usb/ulpi/built-in.o
 .debug_abbrev  0x00013e91     0x1f7d fs/built-in.o
 .debug_abbrev  0x00015e0e     0x2e7e lib/built-in.o
 .debug_abbrev  0x00018c8c      0xf85 lib/libfdt/built-in.o
 .debug_abbrev  0x00019c11     0x1e5b net/built-in.o
 .debug_abbrev  0x0001ba6c      0x152 /home/ugrads/p/philipsmith/ecen449/lab04/u-boot/arch/arm/lib/eabi_compat.o

.debug_aranges  0x00000000     0x3640
 .debug_aranges
                0x00000000       0x20 arch/arm/cpu/armv7/start.o
 .debug_aranges
                0x00000020      0x1b8 api/built-in.o
 .debug_aranges
                0x000001d8       0xe8 arch/arm/cpu/armv7/built-in.o
 .debug_aranges
                0x000002c0      0x1a8 arch/arm/cpu/armv7/zynq/built-in.o
 .debug_aranges
                0x00000468      0x2c0 arch/arm/lib/built-in.o
 .debug_aranges
                0x00000728       0x40 board/xilinx/zynq/built-in.o
 .debug_aranges
                0x00000768     0x13e8 common/built-in.o
 .debug_aranges
                0x00001b50       0x98 disk/built-in.o
 .debug_aranges
                0x00001be8      0x160 drivers/built-in.o
 .debug_aranges
                0x00001d48       0xd8 drivers/i2c/built-in.o
 .debug_aranges
                0x00001e20      0x190 drivers/mmc/built-in.o
 .debug_aranges
                0x00001fb0       0xf8 drivers/mtd/spi/built-in.o
 .debug_aranges
                0x000020a8       0x60 drivers/net/built-in.o
 .debug_aranges
                0x00002108      0x138 drivers/net/phy/built-in.o
 .debug_aranges
                0x00002240      0x128 drivers/serial/built-in.o
 .debug_aranges
                0x00002368       0x98 drivers/spi/built-in.o
 .debug_aranges
                0x00002400       0xd8 drivers/usb/host/built-in.o
 .debug_aranges
                0x000024d8       0xa0 drivers/usb/ulpi/built-in.o
 .debug_aranges
                0x00002578      0x410 fs/built-in.o
 .debug_aranges
                0x00002988      0x628 lib/built-in.o
 .debug_aranges
                0x00002fb0      0x2e8 lib/libfdt/built-in.o
 .debug_aranges
                0x00003298      0x378 net/built-in.o
 .debug_aranges
                0x00003610       0x30 /home/ugrads/p/philipsmith/ecen449/lab04/u-boot/arch/arm/lib/eabi_compat.o

.debug_frame    0x00000000     0x96d4
 .debug_frame   0x00000000      0x460 api/built-in.o
 .debug_frame   0x00000460      0x1d8 arch/arm/cpu/armv7/built-in.o
 .debug_frame   0x00000638      0x360 arch/arm/cpu/armv7/zynq/built-in.o
 .debug_frame   0x00000998      0x514 arch/arm/lib/built-in.o
 .debug_frame   0x00000eac       0x78 board/xilinx/zynq/built-in.o
 .debug_frame   0x00000f24     0x39d8 common/built-in.o
 .debug_frame   0x000048fc      0x1f8 disk/built-in.o
 .debug_frame   0x00004af4      0x33c drivers/built-in.o
 .debug_frame   0x00004e30      0x228 drivers/i2c/built-in.o
 .debug_frame   0x00005058      0x488 drivers/mmc/built-in.o
 .debug_frame   0x000054e0      0x288 drivers/mtd/spi/built-in.o
 .debug_frame   0x00005768      0x118 drivers/net/built-in.o
 .debug_frame   0x00005880      0x3dc drivers/net/phy/built-in.o
 .debug_frame   0x00005c5c      0x2ec drivers/serial/built-in.o
 .debug_frame   0x00005f48      0x154 drivers/spi/built-in.o
 .debug_frame   0x0000609c      0x2b4 drivers/usb/host/built-in.o
 .debug_frame   0x00006350      0x1c4 drivers/usb/ulpi/built-in.o
 .debug_frame   0x00006514      0xdbc fs/built-in.o
 .debug_frame   0x000072d0      0xf5c lib/built-in.o
 .debug_frame   0x0000822c      0x928 lib/libfdt/built-in.o
 .debug_frame   0x00008b54      0xaf8 net/built-in.o
 .debug_frame   0x0000964c       0x48 /home/ugrads/p/philipsmith/ecen449/lab04/u-boot/arch/arm/lib/eabi_compat.o
 .debug_frame   0x00009694       0x20 /opt/coe/Xilinx/SDK/2015.2/gnu/arm/lin/bin/../lib/gcc/arm-xilinx-linux-gnueabi/4.9.1/libgcc.a(_udivsi3.o)
 .debug_frame   0x000096b4       0x20 /opt/coe/Xilinx/SDK/2015.2/gnu/arm/lin/bin/../lib/gcc/arm-xilinx-linux-gnueabi/4.9.1/libgcc.a(_divsi3.o)

.debug_str      0x00000000     0xf321
 .debug_str     0x00000000      0x9b0 api/built-in.o
                               0x1b24 (size before relaxing)
 .debug_str     0x000009b0      0x34e arch/arm/cpu/armv7/built-in.o
                                0xdb6 (size before relaxing)
 .debug_str     0x00000cfe      0xabd arch/arm/cpu/armv7/zynq/built-in.o
                               0x280a (size before relaxing)
 .debug_str     0x000017bb     0x13eb arch/arm/lib/built-in.o
                               0x3ec5 (size before relaxing)
 .debug_str     0x00002ba6      0x247 board/xilinx/zynq/built-in.o
                                0x71b (size before relaxing)
 .debug_str     0x00002ded     0x5fe4 common/built-in.o
                              0x2020b (size before relaxing)
 .debug_str     0x00008dd1      0x268 disk/built-in.o
                                0xceb (size before relaxing)
 .debug_str     0x00009039      0x2a4 drivers/built-in.o
                               0x1e2d (size before relaxing)
 .debug_str     0x000092dd      0x204 drivers/i2c/built-in.o
                                0xb39 (size before relaxing)
 .debug_str     0x000094e1      0x474 drivers/mmc/built-in.o
                               0x1e47 (size before relaxing)
 .debug_str     0x00009955      0x43e drivers/mtd/spi/built-in.o
                               0x174c (size before relaxing)
 .debug_str     0x00009d93      0x22b drivers/net/built-in.o
                                0x985 (size before relaxing)
 .debug_str     0x00009fbe      0x396 drivers/net/phy/built-in.o
                               0x1074 (size before relaxing)
 .debug_str     0x0000a354      0x360 drivers/serial/built-in.o
                                0xcc6 (size before relaxing)
 .debug_str     0x0000a6b4      0x34f drivers/spi/built-in.o
                                0xe20 (size before relaxing)
 .debug_str     0x0000aa03      0x8a6 drivers/usb/host/built-in.o
                               0x1850 (size before relaxing)
 .debug_str     0x0000b2a9      0x16a drivers/usb/ulpi/built-in.o
                                0xb00 (size before relaxing)
 .debug_str     0x0000b413     0x1c0c fs/built-in.o
                               0x5de4 (size before relaxing)
 .debug_str     0x0000d01f      0xa64 lib/built-in.o
                               0x5fd9 (size before relaxing)
 .debug_str     0x0000da83      0x74c lib/libfdt/built-in.o
                               0x2236 (size before relaxing)
 .debug_str     0x0000e1cf     0x1109 net/built-in.o
                               0x560c (size before relaxing)
 .debug_str     0x0000f2d8       0x49 /home/ugrads/p/philipsmith/ecen449/lab04/u-boot/arch/arm/lib/eabi_compat.o
                                0x382 (size before relaxing)

.debug_loc      0x00000000    0x6dc5f
 .debug_loc     0x00000000      0xec1 api/built-in.o
 .debug_loc     0x00000ec1      0x6a1 arch/arm/cpu/armv7/built-in.o
 .debug_loc     0x00001562      0xe19 arch/arm/cpu/armv7/zynq/built-in.o
 .debug_loc     0x0000237b      0xa4b arch/arm/lib/built-in.o
 .debug_loc     0x00002dc6       0x55 board/xilinx/zynq/built-in.o
 .debug_loc     0x00002e1b    0x1ef8b common/built-in.o
 .debug_loc     0x00021da6      0xf85 disk/built-in.o
 .debug_loc     0x00022d2b     0x1a28 drivers/built-in.o
 .debug_loc     0x00024753      0x8f6 drivers/i2c/built-in.o
 .debug_loc     0x00025049     0x2761 drivers/mmc/built-in.o
 .debug_loc     0x000277aa     0x110d drivers/mtd/spi/built-in.o
 .debug_loc     0x000288b7      0x968 drivers/net/built-in.o
 .debug_loc     0x0002921f     0x2438 drivers/net/phy/built-in.o
 .debug_loc     0x0002b657      0x5ee drivers/serial/built-in.o
 .debug_loc     0x0002bc45      0xbd2 drivers/spi/built-in.o
 .debug_loc     0x0002c817     0x181a drivers/usb/host/built-in.o
 .debug_loc     0x0002e031      0xb27 drivers/usb/ulpi/built-in.o
 .debug_loc     0x0002eb58    0x25b25 fs/built-in.o
 .debug_loc     0x0005467d    0x10da8 lib/built-in.o
 .debug_loc     0x00065425     0x44e2 lib/libfdt/built-in.o
 .debug_loc     0x00069907     0x432c net/built-in.o
 .debug_loc     0x0006dc33       0x2c /home/ugrads/p/philipsmith/ecen449/lab04/u-boot/arch/arm/lib/eabi_compat.o

.debug_ranges   0x00000000     0x6128
 .debug_ranges  0x00000000      0x1a0 api/built-in.o
 .debug_ranges  0x000001a0       0xe8 arch/arm/cpu/armv7/built-in.o
 .debug_ranges  0x00000288      0x688 arch/arm/cpu/armv7/zynq/built-in.o
 .debug_ranges  0x00000910      0x210 arch/arm/lib/built-in.o
 .debug_ranges  0x00000b20       0x30 board/xilinx/zynq/built-in.o
 .debug_ranges  0x00000b50     0x2108 common/built-in.o
 .debug_ranges  0x00002c58      0x110 disk/built-in.o
 .debug_ranges  0x00002d68      0x190 drivers/built-in.o
 .debug_ranges  0x00002ef8      0x148 drivers/i2c/built-in.o
 .debug_ranges  0x00003040      0x3b8 drivers/mmc/built-in.o
 .debug_ranges  0x000033f8      0x1a0 drivers/mtd/spi/built-in.o
 .debug_ranges  0x00003598       0xf8 drivers/net/built-in.o
 .debug_ranges  0x00003690      0x420 drivers/net/phy/built-in.o
 .debug_ranges  0x00003ab0      0x150 drivers/serial/built-in.o
 .debug_ranges  0x00003c00      0x1e0 drivers/spi/built-in.o
 .debug_ranges  0x00003de0      0x158 drivers/usb/host/built-in.o
 .debug_ranges  0x00003f38       0xf8 drivers/usb/ulpi/built-in.o
 .debug_ranges  0x00004030      0xa48 fs/built-in.o
 .debug_ranges  0x00004a78      0x938 lib/built-in.o
 .debug_ranges  0x000053b0      0x590 lib/libfdt/built-in.o
 .debug_ranges  0x00005940      0x7c8 net/built-in.o
 .debug_ranges  0x00006108       0x20 /home/ugrads/p/philipsmith/ecen449/lab04/u-boot/arch/arm/lib/eabi_compat.o
